(dp0
S'Langg\xc3\xb6ns'
p1
S'ROW'
p2
sS'Fures\xc3\xb8'
p3
S'ROW'
p4
sS'Tuusula'
p5
g2
sS'Ukyo-Ku, Kyoto'
p6
S'ROW'
p7
sS'Morovis'
p8
g2
sS'Tr\xc3\xa9gueux'
p9
g7
sS'Stuart'
p10
S'ROW'
p11
sS'Huntingdon Valley'
p12
S'ROW'
p13
sS'Pleasant Hill'
p14
g11
sS'Clacton-on-Sea'
p15
S'United Kingdom'
p16
sS'Papenburg'
p17
S'ROW'
p18
sS'Kapfenberg'
p19
S'ROW'
p20
sS'Bom Princ\xc3\xadpio'
p21
S'ROW'
p22
sS'Liverpool'
p23
S'United Kingdom'
p24
sS'High Wycombe'
p25
S'United Kingdom'
p26
sS'Budapest XIV. ker\xc3\xbclet'
p27
S'ROW'
p28
sS'North Palm Beach'
p29
g7
sS'Fairfax'
p30
g20
sS'H\xc3\xa4rryda'
p31
S'ROW'
p32
sS'Reza'
p33
g11
sS'Scottsdale'
p34
g2
sS'\xec\x9a\xa9\xec\x82\xb0\xea\xb5\xac'
p35
S'ROW'
p36
sS'Montville'
p37
g36
sS'F\xc3\xb8rde'
p38
g2
sS'\xce\xa7\xce\xbf\xce\xbb\xce\xb1\xcf\x81\xce\xb3\xce\xbf\xcf\x8d'
p39
g13
sS'Cou\xc3\xabron'
p40
g13
sS'Caulfield North'
p41
g7
sS'Manacor'
p42
g20
sS'Waterloo'
p43
g13
sS'Montrose'
p44
g11
sS'Thoothukkudi'
p45
S'UNKNOWN'
p46
sS'\xe8\x98\x86\xe7\xab\xb9\xe9\x84\x89'
p47
g7
sS'Piaseczno'
p48
g18
sS'Omaha'
p49
g7
sS'Nykvarn'
p50
S'ROW'
p51
sS'Drysdale'
p52
g2
sS'Exeter'
p53
g26
sS'Gladsaxe'
p54
g18
sS'Linares'
p55
g22
sS'B\xc3\xa5stad'
p56
g36
sS'Pilar de la Horadada'
p57
S'ROW'
p58
sS'Tepic'
p59
g7
sS'Skellefte\xc3\xa5'
p60
S'ROW'
p61
sS'Echt-Susteren'
p62
g20
sS'Oberentfelden'
p63
g4
sS'Wayne'
p64
g36
sS'West Homestead'
p65
g7
sS'Villa Soldati'
p66
S'ROW'
p67
sS'Genova'
p68
g2
sS'Windsor'
p69
g4
sS'Sandy'
p70
S'ROW'
p71
sS'Aulnay-sous-Bois'
p72
g7
sS'Z\xc3\xbcrich'
p73
g4
sS'Fauske'
p74
g7
sS'Stone'
p75
g51
sS'Southlake'
p76
g7
sS'Miami Beach'
p77
g58
sS'Newbridge'
p78
g2
sS'Roissy-en-France'
p79
S'ROW'
p80
sS'Noisy-le-Sec'
p81
g22
sS'\xd0\x9d\xd0\xbe\xd1\x82\xd1\x82\xd0\xb8\xd0\xbd\xd0\xb3\xd0\xb0\xd0\xbc'
p82
S'United Kingdom'
p83
sS'Amlach'
p84
g2
sS'Cagny'
p85
S'ROW'
p86
sS'Ringwood North'
p87
g2
sS'Leinefelde-Worbis'
p88
g58
sS'Boise'
p89
g13
sS'Laaksolahti'
p90
g58
sS'Newcastle upon Tyne'
p91
S'United Kingdom'
p92
sS'Llandudno'
p93
S'United Kingdom'
p94
sS'San Benedetto del Tronto'
p95
g11
sS'Waiblingen'
p96
g2
sS'Hoddesdon'
p97
g24
sS"'s-Hertogenbosch"
p98
g58
sS'Colorado Springs'
p99
g36
sS'Viborg'
p100
g7
sS'Eindhoven'
p101
g32
sS'Port Saint Lucie'
p102
g71
sS'Okawville'
p103
g58
sS'Suresnes'
p104
g4
sS'Zaventem'
p105
g58
sS'Parkvale'
p106
g4
sS'New Port'
p107
g4
sS'Stuttgart'
p108
g13
sS'Purley'
p109
S'London'
p110
sS'Utrecht'
p111
g4
sS'Bang Mot 2'
p112
g22
sS'Ojus'
p113
g28
sS'Domdidier'
p114
g7
sS'Bandar Butterworth'
p115
g58
sS'Rancho Santa Margarita'
p116
g7
sS'Ferrara'
p117
g4
sS'Aller\xc3\xb8d'
p118
g51
sS'Muri'
p119
S'ROW'
p120
sS'Pembroke Pines'
p121
g67
sS'Wolverhampton'
p122
S'United Kingdom'
p123
sS'Quezon City'
p124
g80
sS'Wingate'
p125
S'United Kingdom'
p126
sS'Rickmansworth'
p127
S'United Kingdom'
p128
sS'Roodepoort'
p129
g2
sS'Partille'
p130
g20
sS'Las Vegas'
p131
g58
sS'Sao Jose do Rio Preto'
p132
g7
sS'Villaggio Argentina'
p133
g7
sS'Ferryhill'
p134
S'United Kingdom'
p135
sS'Manhattan Beach'
p136
g61
sS'Bukit Raja'
p137
g61
sS'Lohne (Oldenburg)'
p138
g7
sS'\xce\xa0\xcf\x85\xce\xbb\xce\xb1\xce\xaf\xce\xb1\xcf\x82'
p139
g7
sS'Tweed Heads South'
p140
g80
sS'Lyon'
p141
g71
sS'Quincy'
p142
g28
sS'Bollullos de la Mitaci\xc3\xb3n'
p143
g2
sS'Albenga'
p144
g7
sS'Cannock'
p145
S'United Kingdom'
p146
sS'Rawalpindi City'
p147
g94
sS'Newton Abbot'
p148
S'United Kingdom'
p149
sS'Cramlington'
p150
g135
sS'Mellerud'
p151
g20
sS'Subiaco'
p152
g7
sS'Savigny-sur-Orge'
p153
g4
sS'Pasadena'
p154
g58
sS'Coquelles'
p155
g67
sS'Bareilly'
p156
g13
sS'Woodway'
p157
g32
sS'Messina'
p158
g4
sS'Los Gatos'
p159
g22
sS'Getafe'
p160
g58
sS'Bierbeek'
p161
g36
sS'Karrakatta'
p162
g7
sS'Horley'
p163
g24
sS'Danbury'
p164
g7
sS'Rishon LeZion'
p165
g58
sS'Oostkamp'
p166
g71
sS'Tamworth'
p167
g146
sS'Skopje'
p168
g51
sS'Upplands V\xc3\xa4sby'
p169
g28
sS'Buje'
p170
g7
sS'Akron'
p171
g51
sS'Bowling Green'
p172
g7
sS'Geiselh\xc3\xb6ring'
p173
g22
sS'Brighton'
p174
g24
sS'A\xc3\xaen Chock'
p175
g36
sS'Magnitogorsk'
p176
g71
sS'Longueil-Sainte-Marie'
p177
g4
sS'Capital - C\xc3\xb3rdoba'
p178
g58
sS'Zweibr\xc3\xbccken'
p179
g4
sS'Cap\xc3\xa3o Bonito'
p180
g7
sS'Twickenham'
p181
S'London'
p182
sS'Ronneby'
p183
g20
sS'Bilbao'
p184
g2
sS'San Bonifacio'
p185
g58
sS'Lisburn'
p186
g24
sS'Mions'
p187
g11
sS'Caselle Torinese'
p188
g58
sS'Carqueiranne'
p189
g58
sS'\xe5\x8f\xb0\xe5\x8c\x97\xe5\xb8\x82'
p190
g36
sS'Tallinna'
p191
g80
sS'Zapre\xc5\xa1i\xc4\x87'
p192
g4
sS'Cheltenham'
p193
g126
sS'\xe6\x85\x95\xe5\xb0\xbc\xe9\xbb\x91'
p194
g18
sS'Lugarno'
p195
g58
sS'Recoleta'
p196
g61
sS'Dunwoody'
p197
g22
sS'Wiesendangen'
p198
g20
sS'Niederried bei Kallnach'
p199
g7
sS'Stra\xc3\x9flach-Dingharting'
p200
g7
sS'Metepec'
p201
g20
sS'Parow'
p202
g32
sS'Lund'
p203
g28
sS'Centerville'
p204
g20
sS'Tampines'
p205
g28
sS'Fjerdingby'
p206
g22
sS'Palma de Mallorca'
p207
g2
sS'Kingsford'
p208
g22
sS'Waukee'
p209
g4
sS'Antwerp'
p210
g32
sS'Castledermot'
p211
g7
sS'West Palm Beach'
p212
g2
sS'Zoetermeer'
p213
g7
sS'Tampere'
p214
g20
sS'Fendalton'
p215
g61
sS'Glostrup'
p216
g13
sS'Ylivieska'
p217
g11
sS'Juiz de Fora'
p218
g2
sS'Cottens (FR)'
p219
g36
sS'Elk Grove Village'
p220
g7
sS'Cosio Valtellino'
p221
g22
sS'Mandai'
p222
g13
sS'Loxton'
p223
g7
sS'Fremantle'
p224
g36
sS'Kojonup'
p225
g51
sS'Phoenix'
p226
g61
sS'Leksand'
p227
g36
sS'Syddjurs'
p228
g20
sS'Easttown'
p229
g22
sS'Irving'
p230
g7
sS'Irvine'
p231
g2
sS'Jordan'
p232
g2
sS'Ruislip'
p233
S'London'
p234
sS'Vizzola Ticino'
p235
g71
sS'Velika Gorica'
p236
g120
sS'Paterna'
p237
g20
sS'Boynton Beach'
p238
g22
sS'Coppell'
p239
g71
sS'Cuernavaca'
p240
g51
sS'\xd0\x92\xd0\xbe\xd1\x80\xd0\xbe\xd0\xbd\xd0\xb5\xd0\xb6'
p241
g58
sS'Chesapeake'
p242
g36
sS'Ringebu'
p243
g67
sS'Billund'
p244
g18
sS'Fermo'
p245
g7
sS'Giugliano in Campania'
p246
g20
sS'Paris'
p247
g4
sS'Shobra'
p248
g7
sS'Lucan'
p249
g36
sS'Rodenberg'
p250
g13
sS'Bornholm'
p251
g51
sS'Acireale'
p252
g2
sS'Yulee'
p253
g36
sS'\xe6\xb8\x8b\xe8\xb0\xb7\xe5\x8c\xba'
p254
g11
sS'Steinsel'
p255
g2
sS'Link\xc3\xb6ping'
p256
g80
sS'Epsom'
p257
S'United Kingdom'
p258
sS'Aarhus'
p259
g4
sS'Beckenham'
p260
S'London'
p261
sS'Sainte-Th\xc3\xa8cle'
p262
g58
sS'Hameln'
p263
g7
sS'Cinecitt\xc3\xa0'
p264
g4
sS'Coulombs'
p265
g7
sS'Thornton Heath'
p266
g261
sS'Kenilworth'
p267
S'United Kingdom'
p268
sS'Broadstairs'
p269
g149
sS'Monterrey'
p270
g22
sS'Vejen'
p271
g7
sS'Eye'
p272
g146
sS'Billingham'
p273
g135
sS'Langenthal'
p274
g4
sS'Arlington'
p275
g67
sS'East Grinstead'
p276
g149
sS'Casula'
p277
g58
sS'San Giacomo Minore'
p278
g51
sS'Zevio'
p279
g20
sS'Newark'
p280
g4
sS'Apple Valley'
p281
g67
sS'\xce\x92\xcf\x8c\xce\xbb\xce\xbf\xcf\x82'
p282
g7
sS'West Calder'
p283
g126
sS'Charlottesville'
p284
g20
sS'Monte Grande'
p285
g13
sS'Ny\xc3\xadregyh\xc3\xa1za'
p286
g7
sS'Verk\xc3\xb6'
p287
g4
sS'Saint-Nauphary'
p288
g51
sS'Redding'
p289
g7
sS'Halle (Saale)'
p290
g36
sS'Gen\xc3\xa8ve'
p291
g4
sS'Halstead'
p292
g26
sS'Belle Chasse'
p293
g13
sS'Lodi'
p294
g61
sS'La Remu\xc3\xa9e'
p295
g71
sS'Breganze'
p296
g58
sS'Nieuwegein'
p297
g58
sS'Driffield'
p298
g268
sS'Frickenhausen'
p299
g61
sS'Etaux'
p300
g7
sS'Eskilstuna'
p301
g20
sS'Waterlooville'
p302
g92
sS'Wetzikon (ZH)'
p303
g22
sS'Jonesboro'
p304
g7
sS'Zadar'
p305
g51
sS'H\xc3\xa0 N\xe1\xbb\x99i'
p306
g71
sS'Innichen'
p307
g7
sS'Hickory'
p308
g32
sS'Pitesti'
p309
g7
sS'Mobile'
p310
g20
sS'Ciudad Nezahualc\xc3\xb3yotl'
p311
g7
sS'Nagpur'
p312
g58
sS'Treorchy'
p313
g146
sS'Damascus'
p314
g7
sS'Pisa'
p315
g20
sS'Marseille'
p316
g86
sS'Boulogne-Billancourt'
p317
g20
sS'Kufstein'
p318
g20
sS'Sankt Georgen im Attergau'
p319
g22
sS'Geraardsbergen'
p320
g7
sS'Stonehaven'
p321
g135
sS'Fort Worth'
p322
g18
sS'Roseto degli Abruzzi'
p323
g20
sS'Milan'
p324
g36
sS'Thetford'
p325
S'United Kingdom'
p326
sS'Uj\xc5\x9bcie'
p327
g28
sS'\xe3\x82\xa8\xe3\x82\xaf\xe3\x82\xbb\xe3\x82\xbf\xe3\x83\xbc'
p328
S'UNKNOWN'
p329
sS'Eisenstadt'
p330
g7
sS"St. John's"
p331
g4
sS'\xc4\xb0zmir'
p332
g2
sS'Castlecrag'
p333
g51
sS"Il'inskoye"
p334
g51
sS'Sevenoaks'
p335
S'United Kingdom'
p336
sS'Dortmund'
p337
g20
sS'Dexheim'
p338
g7
sS'Vila Real'
p339
g58
sS'Budapest'
p340
g7
sS'Telok Blangah'
p341
g4
sS'Geertruidenberg'
p342
g7
sS'Clevedon'
p343
g126
sS'Fort Mill'
p344
g20
sS'Venth\xc3\xb4ne'
p345
g7
sS'Lutterworth'
p346
S'United Kingdom'
p347
sS'Witham'
p348
g135
sS'\xd7\x9b\xd7\xa4\xd7\xa8 \xd7\xa1\xd7\x91\xd7\x90'
p349
g36
sS'Goodwin'
p350
g22
sS'Schwalmtal'
p351
g71
sS'Qu\xc3\xa9bec'
p352
g18
sS'Budenheim'
p353
g11
sS'Karnal'
p354
g58
sS'Aberdare'
p355
g83
sS'Grandcour'
p356
g13
sS'Radlett'
p357
g92
sS'Rotherham'
p358
S'United Kingdom'
p359
sS'Krefeld'
p360
g7
sS'Karlslunde Strand'
p361
g22
sS'Santa Maria la Stella'
p362
g7
sS'Salzburg'
p363
g80
sS'Iowa City'
p364
g61
sS'Watertown'
p365
g7
sS'\xed\x95\xa8\xeb\xb6\x80\xeb\xa5\xb4\xed\x81\xac'
p366
g36
sS'Karang Jati'
p367
g7
sS'Bridgwater'
p368
g135
sS'Haverfordwest'
p369
g16
sS'Portovenere'
p370
g7
sS'Castell\xc3\xb3n de la Plana'
p371
g11
sS'Den Haag'
p372
g11
sS'\xe5\x88\x97\xe6\xb2\xbb\xe6\x96\x87\xe5\xb1\xb1'
p373
g4
sS'Fair Oaks'
p374
g22
sS'Cambridge'
p375
g24
sS'Melton Constable'
p376
g268
sS'Woking'
p377
g120
sS'Lemoyne'
p378
g58
sS'\xd0\x93\xd0\xb8\xd0\xb2\xd0\xb0\xd1\x82-\xd0\xa8\xd0\xbc\xd1\x83\xd1\x8d\xd0\xbb\xd1\x8c'
p379
g2
sS'Sommacampagna'
p380
g2
sS'Beaulieu'
p381
g11
sS'Delray Beach'
p382
g71
sS'Poulton-le-Fylde'
p383
g347
sS'Bundoora'
p384
g4
sS'Fort Saskatchewan'
p385
g7
sS'\xd0\xa5\xd0\xb8\xd1\x82\xd1\x87\xd0\xb8\xd0\xbd'
p386
S'UNKNOWN'
p387
sS'Ahrensburg'
p388
g28
sS'Oberkirch'
p389
g20
sS'Minervino di Lecce'
p390
g7
sS'Mampang Prapatan'
p391
g7
sS'San Vicente de Barakaldo'
p392
g7
sS'\xe6\xb8\xaf\xe5\x8c\xba'
p393
g4
sS'Jensen Beach'
p394
g20
sS'Chilliwack'
p395
g58
sS'Vilassar de Mar'
p396
g22
sS'Eppenberg-W\xc3\xb6schnau'
p397
g71
sS'Glendale'
p398
g11
sS'Dianella'
p399
g28
sS'\xd7\xa0\xd7\xaa\xd7\xa0\xd7\x99\xd7\x94'
p400
g71
sS'Petr\xc3\xb3polis'
p401
g80
sS'Gudja'
p402
g51
sS'Cranleigh'
p403
g24
sS'Sollentuna'
p404
g7
sS'Punta Princesa'
p405
g58
sS'Loughborough'
p406
g83
sS'Genappe'
p407
g22
sS'Strasbourg'
p408
g2
sS'Bruges'
p409
g58
sS'Oud-Beijerland'
p410
g7
sS'Rehovot'
p411
g58
sS'Bruchsal'
p412
g7
sS'Wantirna South'
p413
g120
sS'Sedlnice'
p414
g4
sS'Faisalabad'
p415
g2
sS'Lower Salford'
p416
g2
sS'Braunschweig'
p417
g51
sS'Stanmore'
p418
g110
sS'Ottaviano'
p419
g4
sS'D\xc3\xbcsseldorf'
p420
g18
sS'Mesa'
p421
g2
sS'Lume'
p422
g36
sS'Sarmenstorf'
p423
g22
sS'Starnberg'
p424
g7
sS'\xc5\x9eakirpa\xc5\x9fa'
p425
g7
sS'Penzance'
p426
g123
sS'Gueishan Township'
p427
g58
sS'Saulx-les-Chartreux'
p428
g7
sS'Didcot'
p429
g149
sS'Martigny-Combe'
p430
g51
sS'Burnaby'
p431
g58
sS'Bl\xc3\xb6tberget'
p432
g11
sS'Enghien'
p433
g7
sS'Charleston'
p434
g2
sS'Vancouver'
p435
g28
sS'Trooz'
p436
g11
sS'Surrey'
p437
g16
sS'\xe0\xb8\xa5\xe0\xb8\xad\xe0\xb8\x99\xe0\xb8\x94\xe0\xb8\xad\xe0\xb8\x99'
p438
g182
sS'Taormina'
p439
g20
sS'Res\xc3\xb6'
p440
g7
sS'K\xc3\xb6niz'
p441
g51
sS'Kortedala'
p442
g36
sS'Langenhagen'
p443
g7
sS'Leicester'
p444
g24
sS'Croydon'
p445
g110
sS'Ascoli Piceno'
p446
g7
sS'Castelnuovo Scrivia'
p447
g58
sS'West Bloomfield Township'
p448
g51
sS'la Floresta'
p449
g86
sS'Odder'
p450
g36
sS'Rheinstetten'
p451
g22
sS'Makati City'
p452
g13
sS'\xe8\xab\xbe\xe4\xb8\x81\xe7\xbd\x95'
p453
g22
sS'Chicago'
p454
g4
sS'Lubbock'
p455
g36
sS'San Salvador'
p456
g36
sS'Minden'
p457
g7
sS'Manilva'
p458
g7
sS'Messancy'
p459
g7
sS'Budapest XI. ker\xc3\xbclet'
p460
g7
sS'Downey'
p461
g2
sS'Curitiba'
p462
g2
sS'\xe8\x91\x9b\xe9\xa3\xbe\xe5\x8c\xba'
p463
g13
sS'Vinovo'
p464
g67
sS'Garnerans'
p465
g51
sS'Belgrano'
p466
g71
sS'Hvidovre'
p467
g7
sS'Malm\xc3\xb6'
p468
g67
sS'Tashkent'
p469
g22
sS'Truro'
p470
g146
sS'Ambarketawang'
p471
g7
sS'Tomares'
p472
g71
sS'Saint-Louis'
p473
g51
sS'Malm\xc3\xb8'
p474
g7
sS'Wuppertal'
p475
g2
sS'El Segundo'
p476
g4
sS'Kernenried'
p477
g7
sS'Oxnard'
p478
g11
sS'Yokine'
p479
g7
sS'Paso Robles'
p480
g51
sS'Horn-Bad Meinberg'
p481
g7
sS"Lytham St Anne's"
p482
g126
sS'Jersey City'
p483
g51
sS'Nigr\xc3\xa1n'
p484
g36
sS'Sevelen'
p485
g7
sS'Frederick'
p486
g7
sS'Rockville Centre'
p487
g20
sS'Gala\xc5\xa3i'
p488
g7
sS'Amersham'
p489
g146
sS'Sch\xc3\xb6neck'
p490
g7
sS'Seia'
p491
g51
sS'Bonn'
p492
g7
sS'Plauen'
p493
g58
sS'Wat Ratchabophit'
p494
g22
sS'Tbilisi'
p495
g20
sS'Aragua\xc3\xadna'
p496
g22
sS'Mariehamn'
p497
g7
sS'Chadstone'
p498
S'ROW'
p499
sS'Jerusalem'
p500
g18
sS'Aalter'
p501
g11
sS'Prost\xc4\x9bjov'
p502
g7
sS'Sofia'
p503
g32
sS'\xce\x9c\xce\xad\xce\xb3\xce\xb1\xcf\x81\xce\xb1'
p504
g22
sS'Fareham'
p505
g359
sS'Samobor'
p506
g7
sS'Himmelkron'
p507
g22
sS'Hillcrest'
p508
g22
sS'Sant Joan Desp\xc3\xad'
p509
g13
sS'Finsp\xc3\xa5ng'
p510
g36
sS'Lisbon'
p511
g20
sS'Lisboa'
p512
g4
sS'Colomiers'
p513
g7
sS'Copenhagen'
p514
g80
sS'Bibbona'
p515
g58
sS'Aldie'
p516
g7
sS'Kiev'
p517
g51
sS'Saarbr\xc3\xbccken'
p518
g13
sS'\xd8\xb9\xd9\x85\xd8\xa7\xd9\x86'
p519
g32
sS'Sint-Katherina-Lombeek'
p520
g36
sS'Armagh'
p521
g126
sS'Orihuela del Tremedal'
p522
g36
sS'McDonough'
p523
g11
sS'Qu\xc3\xa9vy'
p524
g22
sS'Chiyoda'
p525
g71
sS'Al Basatin wa Dar Al salam'
p526
g387
sS'Lynchburg'
p527
g58
sS'Bhopal'
p528
g4
sS'Kiel'
p529
g36
sS'Santiago'
p530
g7
sS'Novara'
p531
g36
sS'Lovanio'
p532
g80
sS'Balchik'
p533
g22
sS'Walcourt'
p534
g58
sS'Maynooth'
p535
g80
sS'Volpiano'
p536
g20
sS'Nairobi'
p537
g58
sS'Bor\xc3\xa5s'
p538
g51
sS'Metuchen'
p539
g71
sS'Ardon'
p540
g36
sS'Montigny-l\xc3\xa8s-Metz'
p541
g20
sS'Fort Covington'
p542
g32
sS'Polt\xc3\xa1r'
p543
g51
sS'Qrendi'
p544
g20
sS'Carrickfergus'
p545
g126
sS'Passo Fundo'
p546
g11
sS'Sint-Michielsgestel'
p547
g22
sS'Molenbeek-Saint-Jean'
p548
g28
sS'Sfax'
p549
g13
sS'Wakefield'
p550
g359
sS'Sankt Marein bei Neumarkt'
p551
g7
sS'Issigeac'
p552
g7
sS'Kempten (Allg\xc3\xa4u)'
p553
g20
sS'Nanterre'
p554
g7
sS'Terracina'
p555
g7
sS'Weymouth'
p556
S'United Kingdom'
p557
sS'Bexley'
p558
S'London'
p559
sS'Biermont'
p560
g36
sS'Roosdaal'
p561
g2
sS'Castellnou-Can Mir'
p562
S'UNKNOWN'
p563
sS'Dodge City'
p564
g13
sS'Lane Cove North'
p565
g22
sS'San Joaqu\xc3\xadn'
p566
g58
sS'\xd0\x92\xd0\xb8\xd0\xbb\xd1\x8c\xd0\xbd\xd1\x8e\xd1\x81'
p567
g20
sS'Concord'
p568
g28
sS'Washington'
p569
g4
sS'Sugar Creek'
p570
g58
sS'Andover'
p571
g36
sS'Sint-Jozef'
p572
g7
sS'\xe8\xa5\xbf\xe5\xae\x81\xe5\xb8\x82'
p573
g58
sS'Tyler'
p574
g7
sS'Dooradoyle'
p575
g71
sS'Garrucha'
p576
g36
sS'Ulricehamn'
p577
g7
sS'Urbandale'
p578
g120
sS'Chula Vista'
p579
g7
sS'Uskumruk\xc3\xb6y'
p580
g58
sS'Remuera'
p581
g20
sS'\xc5\xa0irvintos'
p582
g51
sS'Gottmadingen'
p583
g13
sS'South Toowoomba'
p584
g2
sS'Jackson'
p585
g11
sS'Ostrach'
p586
g58
sS'Penzing'
p587
g22
sS'Br\xc3\xbchl'
p588
g51
sS'Helsing\xc3\xb8r'
p589
g7
sS'San Giovanni Valdarno'
p590
g7
sS'Sydney'
p591
g4
sS'L\xc3\xa9vis'
p592
g22
sS'Narberth'
p593
g126
sS'Elverum'
p594
g11
sS'Knutsford'
p595
g135
sS'Vessy'
p596
g7
sS'Balo\xc5\xbei'
p597
g7
sS'Gurgaon'
p598
g2
sS'Grantham'
p599
g24
sS'Annecy-le-Vieux'
p600
g7
sS'La Seyne-sur-Mer'
p601
g20
sS'Tunbridge Wells'
p602
g24
sS'Novena'
p603
g20
sS'Kemps Creek'
p604
g13
sS'G\xc3\xb6teborg'
p605
g86
sS'Almhult'
p606
g51
sS'Douglasville'
p607
g13
sS'M\xc3\xb6dling'
p608
g58
sS'Telsizler'
p609
g4
sS'Weeze'
p610
g20
sS'Hounslow'
p611
g110
sS'Faxe'
p612
g4
sS'Zaragoza'
p613
g2
sS'Stavanger'
p614
g86
sS'Pilar'
p615
g11
sS'Le Chesnay'
p616
g20
sS'Londen'
p617
g110
sS'Schaarbeek'
p618
g13
sS'Ferwerderadiel'
p619
g13
sS'Horsham'
p620
g80
sS'St. Helens'
p621
g126
sS'West Gosford'
p622
g67
sS'Cupertino'
p623
g18
sS'G\xc3\xa4nserndorf'
p624
g36
sS'Wantage'
p625
g83
sS'Vetlanda'
p626
g22
sS'Sidoarjo'
p627
g2
sS'\xd7\x99\xd7\x94\xd7\x95\xd7\x93 - \xd7\xa0\xd7\x95\xd7\x95\xd7\x94 \xd7\x90\xd7\xa4\xd7\xa8\xd7\x99\xd7\x9d'
p628
S'UNKNOWN'
p629
sS'Kv\xc4\x9btnice'
p630
g20
sS'Pelotas'
p631
g4
sS'Bloemfontein'
p632
g7
sS'Belo Horizonte'
p633
g2
sS'Mallow'
p634
g4
sS'Neuch\xc3\xa2tel'
p635
g67
sS'Libreville'
p636
g7
sS'Olbia'
p637
g11
sS'Aberdeen'
p638
g268
sS'Lemay'
p639
g120
sS'R\xc3\xa5de'
p640
g32
sS'Carlisle'
p641
g347
sS'Leukerbad'
p642
g20
sS'Egly'
p643
g22
sS'Keighley'
p644
g16
sS'Stillorgan'
p645
g4
sS'Eghez\xc3\xa9e'
p646
g7
sS'Fullerton'
p647
g71
sS'Londyn'
p648
g110
sS'\xe5\x8c\x97\xe4\xba\xac\xe5\xb8\x82\xe5\xb8\x82\xe8\xbe\x96\xe5\x8c\xba'
p649
S'UNKNOWN'
p650
sS'Forest'
p651
g13
sS'Orpington'
p652
g110
sS'Parkside'
p653
g36
sS'\xce\x88\xcf\x80\xce\xb9\xce\xbd\xce\xb3\xce\xba'
p654
S'UNKNOWN'
p655
sS'Muscat'
p656
g11
sS'Pau'
p657
g11
sS'Figueres'
p658
g2
sS'Senis'
p659
g13
sS'Cobaki'
p660
g58
sS'Lower Merion'
p661
g61
sS'Renfrew'
p662
g347
sS'\xc4\x8cerven\xc3\xbd \xc3\x9ajezd'
p663
g36
sS'Cherry Hills Village'
p664
g22
sS'\xce\xa1\xce\xaf\xce\xbf\xcf\x85'
p665
g22
sS'Beilingen'
p666
g61
sS'Wyckoff'
p667
g7
sS'Tyabb'
p668
g7
sS'Harstad'
p669
g22
sS'Greenport'
p670
g7
sS'Birzebbuga'
p671
g36
sS'\xe5\x85\xab\xe5\xb0\xbe\xe5\xb8\x82'
p672
g61
sS'Maasdonk'
p673
g36
sS'Marino'
p674
g86
sS'Pacet'
p675
g80
sS'Helsingborg'
p676
g80
sS'Vich'
p677
g13
sS'Devizes'
p678
g347
sS'Nuneaton'
p679
g123
sS'M\xc3\xbcnster'
p680
g36
sS'Redondo Beach'
p681
g58
sS'Aldaia'
p682
g4
sS'Linsengericht'
p683
g7
sS'Al Waily'
p684
g2
sS'Fayetteville'
p685
g61
sS'Berikon'
p686
g13
sS'Al Omrania'
p687
g7
sS'Mlada Boleslav'
p688
g58
sS'Elgin'
p689
g7
sS'Brindisi'
p690
g2
sS'Monte Compatri'
p691
g7
sS'Saint-Denis-de-Brompton'
p692
g11
sS'Zurich'
p693
g67
sS'Worcester'
p694
g149
sS'Hook'
p695
g326
sS'Winnipeg'
p696
g28
sS'Concorezzo'
p697
g2
sS'Cleveland'
p698
g61
sS'Tigard'
p699
g28
sS'\xc3\x85m\xc3\xa5l'
p700
g7
sS'Pozna\xc5\x84'
p701
g13
sS'\xe7\x88\xb1\xe4\xb8\x81\xe5\xa0\xa1'
p702
g58
sS'Lealman'
p703
g58
sS'Temecula'
p704
g4
sS'Simpsonville'
p705
g67
sS'Rackenstown'
p706
g7
sS'Sigulda'
p707
g20
sS'Tianjin'
p708
g86
sS'Prescot'
p709
g268
sS'Skye'
p710
g126
sS'Kalamaria'
p711
g7
sS'Uboldo'
p712
g22
sS'Silom'
p713
g58
sS'Cordova'
p714
g51
sS'Heidelberg'
p715
g11
sS'Karlsruhe'
p716
g13
sS'Our\xc3\xa9m'
p717
g13
sS'Legazpi'
p718
g7
sS'Levanger'
p719
g51
sS'Chapet'
p720
g13
sS'Prato'
p721
g67
sS'Menlo Park'
p722
g58
sS'Saint Neots'
p723
g94
sS'Markfield'
p724
g326
sS'Liscate'
p725
g28
sS'Wolhusen'
p726
g7
sS'Garden City'
p727
g67
sS'Norsborg'
p728
g18
sS'Bang Kho Laem'
p729
g36
sS'Eksj\xc3\xb6'
p730
g7
sS'Glifadha'
p731
g329
sS'Dom\xc5\xbeale'
p732
g13
sS'Pudahuel'
p733
g71
sS'Gardanne'
p734
g7
sS'Albrandswaard'
p735
g71
sS'V\xc3\xa6rl\xc3\xb8se'
p736
g4
sS'Lyndhurst'
p737
g36
sS'Jakarta'
p738
g58
sS'West Alton'
p739
g4
sS'Cergy-Pontoise'
p740
g18
sS'Morris'
p741
g11
sS'Bristol'
p742
g146
sS'Aachen'
p743
g71
sS'Garrison'
p744
g58
sS'Doncaster'
p745
g92
sS'Tijuana'
p746
g22
sS'New Providence'
p747
g61
sS'Warrnambool'
p748
g20
sS'Falkirk'
p749
g126
sS'Durango'
p750
g2
sS'Parma'
p751
g28
sS'Cheras'
p752
g7
sS'Des Moines'
p753
g28
sS'Portland'
p754
g28
sS'Victor'
p755
g7
sS'Colyton'
p756
g135
sS'Utena'
p757
g36
sS'Espoo'
p758
g7
sS'Thane'
p759
g36
sS'Villars-sur-Gl\xc3\xa2ne'
p760
g7
sS'Leigh-on-Sea'
p761
g123
sS'Al Rayyan'
p762
g13
sS'Chim Phli'
p763
g7
sS'Hendrik-Ido-Ambacht'
p764
g7
sS'Glen Allen'
p765
g36
sS'Nicosia'
p766
g28
sS'Drayton Valley'
p767
g7
sS'Shenzhen'
p768
g51
sS'Tafalla'
p769
g7
sS'Maclas'
p770
g67
sS'Li\xc3\xa8ge'
p771
g18
sS'Ar-Rayyan'
p772
g4
sS'Jos\xc3\xa9 Mar\xc3\xada Ezeiza'
p773
g36
sS'\xc5\xa0amor\xc3\xadn'
p774
g36
sS'Timmins'
p775
g32
sS'Hartola'
p776
g22
sS'Vitry-sur-Seine'
p777
g20
sS'Motala'
p778
g51
sS'Mekn\xc3\xa8s'
p779
g51
sS'Mequon'
p780
g28
sS'Southborough'
p781
g7
sS'\xc5\x81\xc4\x99gowo'
p782
g36
sS'Rolling Hills'
p783
g58
sS'Tampa'
p784
g7
sS'Saccolongo'
p785
g71
sS'Kloten'
p786
g4
sS'\xd8\xa7\xd9\x84\xd8\xaf\xd9\x88\xd8\xad\xd8\xa9'
p787
g51
sS'Fontainebleau'
p788
g58
sS'Napoli'
p789
g2
sS'Corona'
p790
g71
sS'De Panne'
p791
g20
sS'Al Hofuf'
p792
g2
sS'\xe0\xb8\x9b\xe0\xb8\xa3\xe0\xb8\xb0\xe0\xb9\x80\xe0\xb8\xa7\xe0\xb8\xa8'
p793
g387
sS'W\xc3\xbcrzburg'
p794
g36
sS'Peterlee'
p795
g126
sS'Varna'
p796
g7
sS'Orte'
p797
g18
sS'Sintra'
p798
g4
sS'Fgura'
p799
g7
sS'Lucca'
p800
g20
sS'Piacenza'
p801
g11
sS'Barnsley'
p802
g359
sS'Guayaquil'
p803
g2
sS'\xce\x91\xce\xb8\xce\xae\xce\xbd\xce\xb1'
p804
g20
sS'Fresno'
p805
g58
sS'Ostwald'
p806
g18
sS'Muntinlupa'
p807
g7
sS'Zutphen'
p808
g4
sS'Wildau'
p809
g22
sS'H\xc3\xb8yanger'
p810
g7
sS'Hialeah'
p811
g22
sS'Santa Clara Ocoyucan'
p812
g7
sS'Tawau'
p813
g20
sS'Echt'
p814
g18
sS'Upper Gwynedd'
p815
g7
sS'Poitiers'
p816
g2
sS'Vieille-Toulouse'
p817
g7
sS'Bridgend'
p818
g336
sS'Naperville'
p819
g2
sS'Marbella'
p820
g4
sS'Truganina'
p821
g7
sS'New Lynn'
p822
g2
sS'\xeb\x9f\xb0\xeb\x8d\x98'
p823
g110
sS'Alphen-Chaam'
p824
g7
sS'Granite City'
p825
g36
sS'Hillsborough'
p826
g20
sS'Eker\xc3\xb6'
p827
g20
sS'Naintr\xc3\xa9'
p828
g7
sS'Locarno'
p829
g36
sS'Sopot'
p830
g2
sS'Jakarta Selatan'
p831
g4
sS'Consdorf'
p832
g36
sS'Southwest Ranches'
p833
g61
sS'Edinburgh'
p834
g26
sS'Motherwell'
p835
g16
sS'Damansara'
p836
g28
sS'Santiago de Cali'
p837
g58
sS'Coalville'
p838
g135
sS'Praha'
p839
g18
sS'Koto'
p840
g61
sS'Palma'
p841
g4
sS'Resistencia'
p842
g13
sS'Kristianstad'
p843
g32
sS'Tananger'
p844
g4
sS'Lamone'
p845
g11
sS'Harrow'
p846
g110
sS'Reggiolo'
p847
g22
sS'Heissa'
p848
g32
sS'\xe5\xb8\xb8\xe5\xb7\x9e\xe5\xb8\x82'
p849
g7
sS'Graz'
p850
g4
sS'Asker'
p851
g7
sS'Poissy'
p852
g86
sS'\xc3\x98ystre Slidre'
p853
g7
sS'Skipton'
p854
g126
sS'Bartenheim'
p855
g51
sS'Voula'
p856
g13
sS'Carnoustie'
p857
g347
sS'Cape Town'
p858
g28
sS'Masquefa'
p859
g58
sS'H\xc3\xa4ssleholm'
p860
g7
sS'Matelica'
p861
g7
sS'Sandnes'
p862
g7
sS'Warszawa'
p863
g20
sS'Montreuil'
p864
g4
sS'Dorsten'
p865
g58
sS'Madison'
p866
g80
sS'Camerata Picena'
p867
g2
sS'\xe5\xaf\x86\xe4\xbc\xa6\xe6\x89\x98\xe5\xb0\x94\xe6\x99\xae'
p868
g387
sS'Al Nozha'
p869
g36
sS'Westerville'
p870
g28
sS'Tarpon Springs'
p871
g7
sS'San Sebasti\xc3\xa1n de los Reyes'
p872
g4
sS'Barosa'
p873
g22
sS'Botany Bay'
p874
g83
sS'Sint-Jans-Molenbeek'
p875
g20
sS'Grugliasco'
p876
g11
sS'Roumengoux'
p877
g86
sS'Currie'
p878
g126
sS'Grasse'
p879
g67
sS'Essen'
p880
g71
sS'Rebigue'
p881
g22
sS'Best'
p882
g22
sS'Tullinge'
p883
g13
sS'Lugano'
p884
g7
sS'Logro\xc3\xb1o'
p885
g51
sS'Dallas'
p886
g61
sS'Apodaca'
p887
g7
sS'Hedensted'
p888
g51
sS'Kolding'
p889
g11
sS'Fairfield'
p890
g36
sS'H\xc3\xa9singue'
p891
g4
sS'Meppel'
p892
g20
sS'Fes'
p893
g4
sS'Gr\xc3\xa4felfing'
p894
g13
sS'South Toms River'
p895
g7
sS'\xd0\x9e\xd0\xbc\xd1\x81\xd0\xba'
p896
g36
sS'\xc4\xb0\xc3\xa7erenk\xc3\xb6y'
p897
g20
sS'Richfield'
p898
g67
sS'Colwood'
p899
g32
sS'Meerssen'
p900
g7
sS'Sabaneta'
p901
g13
sS'Paullo'
p902
g2
sS'Siggiewi'
p903
g36
sS'Firenze'
p904
g4
sS'Rae'
p905
g11
sS'Nave San Rocco'
p906
g7
sS'Lahr/Schwarzwald'
p907
g28
sS'Solidaridad'
p908
g71
sS'Eaubonne'
p909
g51
sS'Monteriggioni'
p910
g7
sS'Rutherford'
p911
g7
sS'Littau'
p912
g67
sS'Wadebridge'
p913
g126
sS'Billericay'
p914
g128
sS'Tewkesbury'
p915
g146
sS'Petaling'
p916
g2
sS'Melton Mowbray'
p917
g146
sS'Reboleira'
p918
g13
sS'Landsmeer'
p919
g36
sS'Mestre'
p920
g20
sS'Santa Cruz de Tenerife'
p921
g4
sS'Reykjavik'
p922
g67
sS'Jamund\xc3\xad'
p923
g22
sS'Hardegsen'
p924
g22
sS'Rickenbach'
p925
g11
sS'Providencia'
p926
g58
sS'Groningen'
p927
g4
sS'Pleasanton'
p928
g80
sS'Riccione'
p929
g36
sS'\xe4\xb8\xad\xe5\x92\x8c\xe5\x8d\x80'
p930
g71
sS'North Atlanta'
p931
g28
sS'Chapel Hill'
p932
g20
sS'Gaithersburg'
p933
g22
sS'Beverly Hills'
p934
g58
sS'Berderhof'
p935
g80
sS'Roetgen'
p936
g36
sS'Samois-sur-Seine'
p937
g20
sS'Vista'
p938
g4
sS'Granada'
p939
g51
sS'Salzkotten'
p940
g80
sS'Vila Nova de Gaia'
p941
g7
sS'Jou\xc3\xa9-l\xc3\xa8s-Tours'
p942
g7
sS'Pensacola'
p943
g7
sS'Stoke-on-Trent'
p944
g123
sS'Nurtingen'
p945
g36
sS'Sanganer'
p946
g499
sS'Porto Alegre'
p947
g13
sS'Friedrichroda'
p948
g86
sS'Ponferrada'
p949
g7
sS'Hillsboro'
p950
g22
sS'Tirupati'
p951
g67
sS'Goodyear'
p952
g22
sS'Ballymoney'
p953
g83
sS'Maghera'
p954
S'London'
p955
sS'Ahmadabad City'
p956
g67
sS'Brugge'
p957
g7
sS'Calton Hill'
p958
g126
sS'Santa Rosa Valley'
p959
g7
sS'Alnwick'
p960
g126
sS'San Pedro Sula'
p961
g71
sS'Maisons-Laffitte'
p962
g7
sS'Worthing'
p963
g146
sS'Beatenberg'
p964
g28
sS'San Justo'
p965
g67
sS'Wilmington'
p966
g2
sS'Cologno al Serio'
p967
g61
sS'Mountain Ash'
p968
g268
sS'Melbourne'
p969
g13
sS'Lissabon'
p970
g58
sS'Aguilar de Campoo'
p971
g7
sS'Winsford'
p972
g326
sS'Palo Alto'
p973
g51
sS'Doylestown township'
p974
g11
sS'Spennymoor'
p975
g126
sS'New Castle'
p976
g36
sS'Hirvensalmi'
p977
g7
sS'Terni'
p978
g7
sS'Fairmount'
p979
g36
sS'Brig-Glis'
p980
g7
sS'Doha'
p981
g51
sS'Negernb\xc3\xb6tel'
p982
g71
sS'Amstelveen'
p983
g58
sS'Mission'
p984
g28
sS'Groesbeek'
p985
g7
sS'Jamshedpur'
p986
g20
sS'Sunderland'
p987
g268
sS'Balerna'
p988
g51
sS'Whitstable'
p989
g557
sS'\xce\x95\xce\xbb\xce\xb5\xcf\x85\xce\xb8\xce\xb5\xcf\x81\xcf\x8e\xce\xbd'
p990
g67
sS'Keller'
p991
g7
sS'Matar\xc3\xb3'
p992
g22
sS'Empire'
p993
S'London'
p994
sS'\xe6\xb1\x9f\xe6\x9d\xb1\xe5\x8c\xba'
p995
g51
sS'Ruhland'
p996
g4
sS'Leonding'
p997
g22
sS'Saonara'
p998
g22
sS'Ramazano\xc4\x9flu'
p999
g20
sS'\xd0\x91\xd0\xb0\xd0\xba\xd1\x83'
p1000
g67
sS'Ulvila'
p1001
g51
sS'Torino'
p1002
g86
sS'Bassano del Grappa'
p1003
g18
sS'Barangay 19'
p1004
g86
sS'Pacifica'
p1005
g7
sS'Lyngby-Taarb\xc3\xa6k'
p1006
g58
sS'Payerne'
p1007
g32
sS'Ipswich'
p1008
g123
sS'Oshtemo'
p1009
g58
sS'Tsu'
p1010
g2
sS'Lleida'
p1011
g51
sS'Chennai'
p1012
g20
sS'Columbia'
p1013
g22
sS'Pancoran'
p1014
g7
sS'Ipoh'
p1015
g7
sS'Verona'
p1016
g67
sS'Dal'
p1017
g7
sS'Ezeiza'
p1018
g4
sS'Lenzburg'
p1019
g4
sS'Ridgefield Park'
p1020
g20
sS'Ashburn'
p1021
g7
sS'Arzerello'
p1022
g11
sS'Trnava'
p1023
g7
sS'Atlanta'
p1024
g18
sS'Gazzada Schianno'
p1025
g11
sS'Ahmedabad'
p1026
g71
sS'Oudenaarde'
p1027
g36
sS'Lynnwood'
p1028
g7
sS'Lontoo'
p1029
S'London'
p1030
sS'Lakeland'
p1031
g51
sS'Nyk\xc3\xb6ping'
p1032
g13
sS'Solihull'
p1033
g326
sS'Uwchlan'
p1034
g7
sS'Bras\xc3\xadlia'
p1035
g51
sS'Pulo Gadung'
p1036
g71
sS'Favrskov'
p1037
g7
sS'New Port Richey East'
p1038
g51
sS'Norrt\xc3\xa4lje'
p1039
g58
sS'Kanpur'
p1040
g11
sS'Volketswil'
p1041
g22
sS'Kartaltepe'
p1042
g20
sS'Wake Forest'
p1043
g11
sS'Cormons'
p1044
g58
sS'Biggleswade'
p1045
g146
sS'Mundelein'
p1046
g32
sS'Saltash'
p1047
g135
sS'\xd0\x9a\xd0\xb8\xd1\x97\xd0\xb2'
p1048
g20
sS'Villejuif'
p1049
g80
sS'\xd0\xa1\xd0\xb0\xd0\xbd\xd0\xba\xd1\x82-\xd0\x9f\xd0\xb5\xd1\x82\xd0\xb5\xd1\x80\xd0\xb1\xd1\x83\xd1\x80\xd0\xb3'
p1050
g4
sS'Biberist'
p1051
g2
sS'La Cartuja'
p1052
g4
sS'Ocala'
p1053
g7
sS'Auchterarder'
p1054
g126
sS'Cabo Rojo'
p1055
g7
sS'Tahoe City'
p1056
g20
sS'Monza'
p1057
g28
sS'Bernalda'
p1058
g2
sS'Fort Bragg'
p1059
g7
sS'Sorocaba'
p1060
g20
sS'Cusano Milanino'
p1061
g18
sS'K\xc3\xb8ge'
p1062
g32
sS'Robertsfors'
p1063
g11
sS'Midlothian'
p1064
g16
sS'Culleredo'
p1065
g20
sS'Sch\xc3\xb6nefeld'
p1066
g36
sS'Lesquin'
p1067
g32
sS'Sheffield'
p1068
g347
sS'Guangzhou'
p1069
g32
sS'Chippenham'
p1070
g268
sS'Kuala Lumpur'
p1071
g4
sS'Rumbeke'
p1072
g28
sS'Ecublens VD'
p1073
g67
sS'Sabetha'
p1074
g22
sS'Honolulu'
p1075
g58
sS'Marchin'
p1076
g22
sS'Beloeil'
p1077
g7
sS'Bern'
p1078
g71
sS'Grenoble'
p1079
g7
sS'Uttoxeter'
p1080
g126
sS'Fountainebleau'
p1081
g58
sS'Stourbridge'
p1082
g326
sS'Malahide'
p1083
g86
sS'Hengelo'
p1084
g4
sS'\xe9\x98\xbf\xe5\x85\x8b\xe6\x8b\x89'
p1085
g58
sS'Auenstein'
p1086
g61
sS'Bergom'
p1087
g67
sS'Rabat'
p1088
g61
sS'Tigre'
p1089
g7
sS'Bad H\xc3\xa4ring'
p1090
g58
sS'Micha\xc5\x82owice'
p1091
g20
sS'San Bruno'
p1092
g22
sS'Crotone'
p1093
g7
sS'Mainz'
p1094
g22
sS'Soest'
p1095
g11
sS'\xd0\xa3\xd0\xbe\xd1\x82\xd1\x84\xd0\xbe\xd1\x80\xd0\xb4'
p1096
g655
sS'North Wollongong'
p1097
g22
sS'Blaydon-On-Tyne'
p1098
g24
sS'Knebworth'
p1099
g146
sS'Andorra la Vella'
p1100
g7
sS'Hatfield'
p1101
g123
sS'Tlalnepantla'
p1102
g7
sS'Houilles'
p1103
g67
sS'Magdeburg'
p1104
g58
sS'Malacca'
p1105
g7
sS'Atina'
p1106
g28
sS'\xe9\xa6\x99\xe6\xb8\xaf'
p1107
g67
sS'Las Cruces'
p1108
g2
sS'Pite\xc3\xa5'
p1109
g20
sS'Haverford'
p1110
g36
sS'Dar es Salaam'
p1111
g22
sS'Macdonald'
p1112
g58
sS'Tadley'
p1113
g146
sS'Enoggera Reservoir'
p1114
g11
sS'Cottage Lake'
p1115
g120
sS'Angri'
p1116
g13
sS'Staines'
p1117
g123
sS'\xe3\x82\xa2\xe3\x83\x86\xe3\x83\x8d'
p1118
g18
sS'Cerdanyola del Vall\xc3\xa8s'
p1119
g7
sS'Acworth'
p1120
g13
sS'Diez'
p1121
g36
sS'Agia Paraskevi'
p1122
g13
sS'Odivelas'
p1123
g18
sS'Sarasota'
p1124
g2
sS'\xe0\xb8\xaa\xe0\xb8\xb5\xe0\xb8\xa5\xe0\xb8\xa1'
p1125
g4
sS'East Nasr City'
p1126
g20
sS'Opole'
p1127
g13
sS'Boca del R\xc3\xado'
p1128
g22
sS'Bang Sue'
p1129
g20
sS'Ediger-Eller'
p1130
g22
sS'Wien'
p1131
g32
sS'Ragusa'
p1132
g71
sS'Huelva'
p1133
g7
sS'Hialeah Gardens'
p1134
g80
sS'Vigevano'
p1135
g11
sS'Montcada i Reixac'
p1136
g32
sS'Bucha'
p1137
g13
sS'Sultan'
p1138
g22
sS'Orlando'
p1139
g51
sS'Raisio'
p1140
g67
sS'Hayes'
p1141
g80
sS'Gramatneusiedl'
p1142
g36
sS'Bex'
p1143
g20
sS'Seevetal'
p1144
g7
sS'Weitersburg'
p1145
g11
sS'H\xc3\xb6rby'
p1146
g61
sS'Pforzheim'
p1147
g80
sS'Licques'
p1148
g80
sS'Antwerpen'
p1149
g28
sS'North Kingstown'
p1150
g22
sS'Feletto Umberto'
p1151
g51
sS'Jens'
p1152
g2
sS'Betws-y-coed'
p1153
g126
sS'San Rafael'
p1154
g20
sS'Anzio'
p1155
g13
sS'Roseville'
p1156
g61
sS'Sydstranden'
p1157
g58
sS'Amersfoort'
p1158
g20
sS'Carnaxide'
p1159
g32
sS'Kortenberg'
p1160
g4
sS'Sunrise Manor'
p1161
g71
sS'Chelmsford'
p1162
g51
sS'Carine'
p1163
g20
sS'Valdagno'
p1164
g7
sS'Herndon'
p1165
g51
sS'Venetico'
p1166
g7
sS'Lansingerland'
p1167
g36
sS'Calhoun'
p1168
g11
sS'Bruck an der Leitha'
p1169
g11
sS'Velsen'
p1170
g71
sS'Southall'
p1171
g86
sS'Kristiansund'
p1172
g7
sS'Pompey'
p1173
g7
sS'Austevoll'
p1174
g7
sS'Steinkjer'
p1175
g80
sS'Vila da Praia da Vit\xc3\xb3ria'
p1176
g120
sS'Tr\xc3\xa4sl\xc3\xb6vsl\xc3\xa4ge'
p1177
g51
sS'Haarlem'
p1178
g67
sS'Viguzzolo'
p1179
g2
sS'S\xc3\xb3ller'
p1180
g4
sS'Berazategui'
p1181
g22
sS'Alger'
p1182
g51
sS'Vila Velha'
p1183
g7
sS'\xce\x86\xcf\x81\xce\xb9\xce\xbf\xcf\x82'
p1184
g7
sS'Munich'
p1185
g28
sS'Skogn'
p1186
g13
sS'Tampoi'
p1187
g22
sS'Tanah Merah'
p1188
g22
sS'Carrollton'
p1189
g36
sS'Edimburgo'
p1190
g146
sS'Kalmar'
p1191
g7
sS'Pulheim'
p1192
g7
sS'Calasetta'
p1193
g2
sS'Mississauga'
p1194
g13
sS'Viena'
p1195
g7
sS'Kallang'
p1196
g51
sS'Niederanwen'
p1197
g387
sS'Hesperange'
p1198
g18
sS'Bochum'
p1199
g22
sS'S\xc3\xb6dert\xc3\xa4lje'
p1200
g7
sS'Veltheim (AG)'
p1201
g2
sS'Beekkant'
p1202
g28
sS'Manfredonia'
p1203
g7
sS'Sainte-Anne-de-la-P\xc3\xa9rade'
p1204
g20
sS'Lakewood'
p1205
g58
sS'Ede'
p1206
g20
sS'Baden'
p1207
g67
sS'Damar'
p1208
g20
sS'Haaslava'
p1209
g51
sS'Marikina City'
p1210
g7
sS'Orsay'
p1211
g22
sS'Maltepe'
p1212
g67
sS'Draguignan'
p1213
g7
sS'Newport'
p1214
g347
sS'Marling'
p1215
g18
sS'Mold'
p1216
g7
sS'McKinney'
p1217
g36
sS'Pasay City'
p1218
g80
sS'Beclean'
p1219
g7
sS"L'\xc3\x8ele-Perrot"
p1220
g36
sS'Peterborough'
p1221
g24
sS'San Patricio'
p1222
g7
sS'Arezzo'
p1223
g7
sS'Irapuato'
p1224
g7
sS'Neuvoton'
p1225
g655
sS'Rio de Janeiro'
p1226
g4
sS'Barnet'
p1227
g1030
sS'Palomar Park'
p1228
g11
sS'Tirana'
p1229
g7
sS'Herisau'
p1230
g22
sS'Asunci\xc3\xb3n'
p1231
g67
sS'Sturbridge'
p1232
g36
sS'Faridabad'
p1233
g58
sS'Brookfield'
p1234
g61
sS'Harpenden'
p1235
g123
sS'Chioggia'
p1236
g22
sS'Witney'
p1237
g16
sS'Noida'
p1238
g2
sS'\xce\x99\xce\xb1\xce\xbb\xcf\x85\xcf\x83\xce\xbf\xcf\x8d'
p1239
g329
sS'Th\xc3\xb6rigen'
p1240
g7
sS'Misr Al Gadida'
p1241
g20
sS'Llanelli'
p1242
g24
sS'Noblesville'
p1243
g7
sS'Karm\xc3\xb8y'
p1244
g7
sS'\xce\x98\xce\xb5\xcf\x83\xcf\x83\xce\xb1\xce\xbb\xce\xbf\xce\xbd\xce\xaf\xce\xba\xce\xb7\xcf\x82'
p1245
g36
sS'Nantwich'
p1246
g83
sS'Lenexa'
p1247
g86
sS'K\xc3\xb8benhavn'
p1248
g67
sS'Suzzara'
p1249
g7
sS'Buderim'
p1250
g7
sS'Nyrup'
p1251
g7
sS'Rahden'
p1252
g22
sS'Kyle'
p1253
g58
sS'Augusta'
p1254
g7
sS'Rome'
p1255
g4
sS'Stallikon'
p1256
g51
sS'Batu Ceper'
p1257
g36
sS'Roma'
p1258
g32
sS'Sengkang'
p1259
g7
sS'Brookhaven'
p1260
g58
sS'Millcreek'
p1261
g13
sS'Piscop'
p1262
g32
sS'Paratico'
p1263
g51
sS'Burton upon Trent'
p1264
g149
sS'Cessaniti'
p1265
g58
sS'Duggingen'
p1266
g80
sS'\xc3\x96sthammar'
p1267
g7
sS'Manama'
p1268
g67
sS'Holzwickede'
p1269
g20
sS'Sevilla'
p1270
g28
sS'Erfurt'
p1271
g28
sS'Seville'
p1272
g58
sS'Emsworth'
p1273
g32
sS'Roslyn'
p1274
g7
sS'Vila do Conde'
p1275
g20
sS'Gilroy'
p1276
g67
sS'Errenteria'
p1277
g7
sS'Poplarville'
p1278
g58
sS'Findel'
p1279
g51
sS'Morecambe'
p1280
g135
sS'Pasir Panjang'
p1281
g13
sS'Pondok Aren'
p1282
g58
sS'Bang Kapi'
p1283
g22
sS'\xe5\xa4\xa7\xe6\xb4\xa5\xe5\xb8\x82'
p1284
g7
sS'Venetian Village'
p1285
g22
sS'Ross-on-Wye'
p1286
g123
sS'Vanylven'
p1287
g4
sS'San Marino'
p1288
g2
sS'Guadalajara'
p1289
g51
sS'K\xc3\xa4vlinge'
p1290
g7
sS'Cointrin'
p1291
g18
sS'Herlev'
p1292
g67
sS'Split'
p1293
g13
sS'Allambie Heights'
p1294
g61
sS'Scarborough'
p1295
g359
sS'Newcastle-under-Lyme'
p1296
g94
sS'Elizabeth'
p1297
g67
sS'Sunshine West'
p1298
g2
sS'Augsburg'
p1299
g2
sS'Kennedys Bush'
p1300
g58
sS'Le\xc3\xb3n'
p1301
g4
sS'Banbridge'
p1302
g92
sS'\xc3\x96rnek'
p1303
g36
sS'Kew'
p1304
S'London'
p1305
sS'Euless'
p1306
g32
sS'Peretola'
p1307
g28
sS'Cilandak'
p1308
g36
sS'Trittau'
p1309
g51
sS'Indaiatuba'
p1310
g13
sS'Taman Sri Sinar'
p1311
g18
sS'Leeming'
p1312
g126
sS'Lucknow'
p1313
g7
sS'Dornheim'
p1314
g51
sS'F\xc4\xb1rat'
p1315
g58
sS'Her\xc3\xb3ica Puebla de Zaragoza'
p1316
g2
sS'\xd7\xa0\xd7\xa2\xd7\x95\xd7\xa8\xd7\x99\xd7\x9d'
p1317
g18
sS'Esparreguera'
p1318
g7
sS'Westfield'
p1319
g36
sS'Bandung'
p1320
g20
sS'Leuven'
p1321
g28
sS'Oberwil (BL)'
p1322
g2
sS'Navi Mumbai'
p1323
g51
sS'Brampton'
p1324
g58
sS'Baku'
p1325
g28
sS'Arn\xc3\xb6'
p1326
g36
sS'Huntington'
p1327
g32
sS'Adelaide'
p1328
g7
sS'Norwalk'
p1329
g36
sS'Sanford'
p1330
g36
sS'Gaillard'
p1331
g7
sS'Marbach am Neckar'
p1332
g13
sS'\xe4\xb8\x8a\xe6\xb5\xb7\xe5\xb8\x82'
p1333
g7
sS'Gribskov'
p1334
g36
sS'Bedia'
p1335
g2
sS'\xe7\x9b\xae\xe9\xbb\x92\xe5\x8c\xba'
p1336
g51
sS'Inca'
p1337
g4
sS'South Wharf'
p1338
g20
sS'\xc4\xb0stanbul'
p1339
g18
sS'Patna'
p1340
g4
sS'Busto Arsizio'
p1341
g18
sS'Slagelse'
p1342
g80
sS'Al Jubayl'
p1343
g7
sS'Bardhaman'
p1344
g36
sS'San Carlos'
p1345
g4
sS'Hospitalet de Llobregat'
p1346
g7
sS'Burlingame'
p1347
g11
sS'Uppsala'
p1348
g22
sS'Dovre'
p1349
g7
sS'Saint-Denis'
p1350
g51
sS'Bad Waldsee'
p1351
g7
sS'Camps-la-Source'
p1352
g20
sS'South Shields'
p1353
g24
sS'Jaboticabal'
p1354
g7
sS'Chamonix'
p1355
g36
sS'Salado'
p1356
g7
sS'Tudela'
p1357
g67
sS'San Gemini'
p1358
g7
sS'Uster'
p1359
g58
sS'\xce\xa6\xce\xb9\xce\xbb\xce\xbf\xce\xb8\xce\xad\xce\xb7\xcf\x82'
p1360
g7
sS'Kaiserslautern'
p1361
g58
sS'Avocado Heights'
p1362
g51
sS'Rushcutters Bay'
p1363
g2
sS'Crawley'
p1364
g149
sS'Zanica'
p1365
g7
sS'Vicente L\xc3\xb3pez'
p1366
g32
sS'Ponte da Barca'
p1367
g67
sS'\xce\xa4\xce\xb1\xcf\x8d\xcf\x81\xce\xbf\xcf\x85'
p1368
g7
sS'Arsy'
p1369
g36
sS'Zeewolde'
p1370
g36
sS'Savska Ves'
p1371
g13
sS'Blockhouse Bay'
p1372
g4
sS'Wheat Ridge'
p1373
g20
sS'Lilla Edet'
p1374
g7
sS'Mill Park'
p1375
g7
sS'Maidenhead'
p1376
g24
sS'Kirknewton'
p1377
g126
sS'La Oliva'
p1378
g7
sS'Hendersonville'
p1379
g2
sS'Schulzendorf'
p1380
g13
sS'Guwahati'
p1381
g20
sS'Aigremont'
p1382
g20
sS'Fredericia'
p1383
g22
sS'Gembloux'
p1384
g28
sS'Spinea'
p1385
g7
sS'C\xc3\xb3rdoba'
p1386
g2
sS'Singkurong'
p1387
g629
sS'Llangollen'
p1388
g268
sS'Jaipur'
p1389
g36
sS'Molde'
p1390
g58
sS'Parsippany'
p1391
g20
sS'Guadalupe'
p1392
g7
sS'Philadelphia'
p1393
g20
sS'T\xc3\xb8nsberg'
p1394
g7
sS'Cristelo'
p1395
g4
sS'Aylesbury'
p1396
g149
sS'Kidderminster'
p1397
g557
sS'Crema'
p1398
g4
sS'Viiratsi'
p1399
g58
sS'Domessargues'
p1400
g51
sS'Bad Vilbel'
p1401
g36
sS'Torrance'
p1402
g36
sS'Schmalkalden'
p1403
g7
sS'Mareil-Marly'
p1404
g36
sS'Kungsbacka'
p1405
g67
sS'El Rosario'
p1406
g7
sS'Hagebyen'
p1407
g67
sS'W\xc3\xbbnseradiel'
p1408
g650
sS'Ben Arous'
p1409
g7
sS'Leirvikhaugen'
p1410
S'UNKNOWN'
p1411
sS'O Fallon'
p1412
g7
sS'Cr\xc3\xa9teil'
p1413
g28
sS'Langley'
p1414
g20
sS'Bruchm\xc3\xbchlbach-miesau'
p1415
g58
sS'Sholinganallur'
p1416
g22
sS'M\xc3\xb6rfelden-Walldorf'
p1417
g51
sS'Arax\xc3\xa1'
p1418
g36
sS'H\xc3\xb6rsching'
p1419
g2
sS'Padova'
p1420
g20
sS'Cluj-Napoca'
p1421
g28
sS'Rugby'
p1422
g26
sS'Bagnolo Mella'
p1423
g7
sS'Limassol'
p1424
g7
sS'Aalesund'
p1425
g83
sS'Otr\xc4\x99busy'
p1426
g71
sS'Fuenlabrada'
p1427
g51
sS'Motta Visconti'
p1428
g7
sS'Vestal'
p1429
g13
sS'New Smyrna Beach'
p1430
g32
sS'Wijnegem'
p1431
g4
sS'Menomonee Falls'
p1432
g7
sS'Cottingham'
p1433
g126
sS'Melsungen'
p1434
g499
sS'Dunstable'
p1435
g149
sS'Kraainem'
p1436
g51
sS'Collingwood Park'
p1437
g4
sS'\xd7\xa8\xd7\x9e\xd7\xaa \xd7\x92\xd7\x9f'
p1438
g22
sS'Alcamo'
p1439
g58
sS'Weston'
p1440
g126
sS'Merdingen'
p1441
g7
sS'Lodrino'
p1442
g58
sS'Germantown'
p1443
g7
sS'Amsterdam'
p1444
g67
sS'\xd0\x92\xd0\xb5\xd0\xbd\xd0\xb0'
p1445
g22
sS'New Brighton'
p1446
g4
sS'Sandefjord'
p1447
g67
sS'Carshalton'
p1448
g261
sS'Wevelgem'
p1449
g28
sS'S\xc3\xa8vres'
p1450
g18
sS'Ulm'
p1451
g20
sS'Istanboel'
p1452
g7
sS'Kalideres'
p1453
g7
sS'Re\xc5\x9fitpa\xc5\x9fa'
p1454
g4
sS'\xc3\x84ngelholm'
p1455
g4
sS'Toluca de Lerdo'
p1456
g20
sS'Tolna'
p1457
g22
sS'Centurion'
p1458
g4
sS'\xeb\x8f\x99\xeb\x8c\x80\xeb\xac\xb8\xea\xb5\xac'
p1459
g11
sS'Canning Mills'
p1460
g51
sS'Randburg'
p1461
g2
sS'Hattem'
p1462
g67
sS'Sacramento'
p1463
g51
sS'Tating'
p1464
g22
sS'Divignano'
p1465
g51
sS'Kastl'
p1466
g80
sS'Jonqui\xc3\xa8re'
p1467
g18
sS'Grapevine'
p1468
g58
sS'Orkdal'
p1469
g7
sS'Epalinges'
p1470
g61
sS'Fibbiana'
p1471
g36
sS'Wrexham'
p1472
g94
sS'\xd0\x95\xd1\x80\xd0\xb5\xd0\xb2\xd0\xb0\xd0\xbd'
p1473
g11
sS'Charenton-le-Pont'
p1474
g7
sS'Madonna delle Grazie'
p1475
g36
sS'Saint-Cyr-la-Campagne'
p1476
g11
sS'Altamonte Springs'
p1477
g36
sS'Mirabel'
p1478
g20
sS'Confluencia'
p1479
g22
sS'\xe3\x83\x87\xe3\x83\xa5\xe3\x83\x83\xe3\x82\xbb\xe3\x83\xab\xe3\x83\x89\xe3\x83\xab\xe3\x83\x95'
p1480
g32
sS'Uckfield'
p1481
g135
sS'Kota Tasikmalaya'
p1482
g2
sS'Skj\xc3\xa5k'
p1483
g7
sS'Praga'
p1484
g7
sS'Upplands-Bro'
p1485
g67
sS'Veghel'
p1486
g7
sS'Welwyn Garden City'
p1487
g92
sS'Wirral'
p1488
g80
sS'Sudbury'
p1489
g32
sS'Ostrava'
p1490
g7
sS'Aiello del Sabato'
p1491
g58
sS'Saint Leonards'
p1492
g67
sS'Villers-l\xc3\xa8s-Nancy'
p1493
g7
sS'K\xc3\xb6nigswinter'
p1494
g51
sS'Tomball'
p1495
g61
sS'\xd7\x92\xd7\xa0\xd7\x99 \xd7\xa2\xd7\x9d'
p1496
g7
sS'Dornbirn'
p1497
g80
sS'Faches-Thumesnil'
p1498
g86
sS'Taito'
p1499
g7
sS'Fonte Nuova'
p1500
g7
sS'Xalapa'
p1501
g22
sS'Manchester'
p1502
g24
sS'Eldoki'
p1503
S'UNKNOWN'
p1504
sS'Narellan Vale'
p1505
g2
sS'Les Ulis'
p1506
g20
sS'Eppstein'
p1507
g7
sS'Gennep'
p1508
g7
sS'Chang Khlan'
p1509
g61
sS'S\xc3\xa3o Bernardo do Campo'
p1510
g22
sS'Nong Pa Khrang'
p1511
S'UNKNOWN'
p1512
sS'Geilenkirchen'
p1513
g58
sS'Panevezys'
p1514
g11
sS'Al Haram'
p1515
g20
sS'\xe9\x98\xb3\xe6\xb1\x9f\xe5\xb8\x82'
p1516
g7
sS'Seseglio'
p1517
g4
sS'Andratx'
p1518
g7
sS'Chepstow'
p1519
g146
sS'Itabuna'
p1520
g7
sS'Aubagne'
p1521
g11
sS'Poliez-le-Grand'
p1522
g71
sS'Vit\xc3\xb3ria'
p1523
g22
sS'Jid Hafs'
p1524
g20
sS'Port Kennedy'
p1525
g11
sS'Hempstead'
p1526
g2
sS'Zaandam'
p1527
g51
sS'Berlin'
p1528
g32
sS'Caltanissetta'
p1529
g71
sS'Leeds'
p1530
g26
sS'Vorst'
p1531
g36
sS'\xc3\x96desh\xc3\xb6g'
p1532
g7
sS'\xc5\xa0kvorec'
p1533
g11
sS'Bangalore'
p1534
g499
sS'Maip\xc3\xba'
p1535
g4
sS'Bardonnex'
p1536
g18
sS'Harlow'
p1537
g24
sS'Azzano San Paolo'
p1538
g67
sS'Nijefurd'
p1539
g61
sS'North Charleston'
p1540
g2
sS'Oristano'
p1541
g7
sS'Katrineholm'
p1542
g4
sS'Leysin'
p1543
g7
sS'G\xc3\xa1ldar'
p1544
g7
sS'H\xc3\xb8je-Taastrup'
p1545
g51
sS'\xe9\x87\x8d\xe5\xba\x86\xe5\xb8\x82\xe5\xb8\x82\xe8\xbe\x96\xe5\x8c\xba'
p1546
S'UNKNOWN'
p1547
sS'Kristiansand'
p1548
g67
sS'Carver'
p1549
g58
sS'Treviolo'
p1550
g51
sS'Javea'
p1551
g7
sS'Tula de Allende'
p1552
g61
sS'Cairndow'
p1553
g347
sS'Lingewaard'
p1554
g32
sS'Galapagar'
p1555
g51
sS'Martillac'
p1556
g71
sS'Orinda'
p1557
g7
sS'\xe8\xaf\xba\xe6\xb1\x80\xe6\xb1\x89\xe5\xa7\x86'
p1558
g51
sS'Cheektowaga'
p1559
g11
sS'Watford'
p1560
g128
sS'Jundia\xc3\xad'
p1561
g71
sS'Bishop Auckland'
p1562
g326
sS'Eden Prairie'
p1563
g11
sS'Pimonte'
p1564
g28
sS'Nagykov\xc3\xa1csi'
p1565
g7
sS'Longwy'
p1566
g13
sS'Chaville'
p1567
g2
sS'La Florida'
p1568
g4
sS'Kearny'
p1569
g58
sS'Albert Park'
p1570
g7
sS'Waukegan'
p1571
g7
sS'Denklingen'
p1572
g36
sS'Bagnaria Arsa'
p1573
g2
sS'Purwodadi'
p1574
g7
sS'\xce\xa7\xce\xb1\xce\xbb\xce\xb1\xce\xbd\xce\xb4\xcf\x81\xce\xaf\xce\xbf\xcf\x85'
p1575
g61
sS'Wantirna'
p1576
g36
sS'M\xc3\xbcnchen'
p1577
g32
sS'Meysse'
p1578
g67
sS'Pretoria'
p1579
g28
sS'Semarang'
p1580
g22
sS'Chorley'
p1581
g126
sS'Varel'
p1582
g7
sS'Wisbech'
p1583
g135
sS'Str\xc3\xb6msund'
p1584
g22
sS'Markersdorf-Haindorf'
p1585
g18
sS'\xc5\x9awi\xc4\x99toch\xc5\x82owice'
p1586
g86
sS'Millbrae'
p1587
g51
sS'Svendborg'
p1588
g2
sS'Stj\xc3\xb8rdal'
p1589
g7
sS'Badr'
p1590
g61
sS'Neustadt am R\xc3\xbcbenberge'
p1591
g28
sS'Batley'
p1592
g83
sS'Halden'
p1593
g7
sS'Haaren'
p1594
g4
sS'Pirkkala'
p1595
g36
sS'Armidale'
p1596
g7
sS'Yal\xc4\xb1kavak'
p1597
g58
sS'Origlio'
p1598
g7
sS'Leval'
p1599
g7
sS'Crespina'
p1600
g86
sS'Sharjah'
p1601
g51
sS'Kals am Gro\xc3\x9fglockner'
p1602
g20
sS'Parigi'
p1603
g7
sS'Davenport'
p1604
g499
sS'Amsterd\xc3\xa3'
p1605
g86
sS'Lancing'
p1606
g16
sS'B\xc3\xa9ni Mellal'
p1607
g11
sS'Cesenatico'
p1608
g11
sS'Boqueix\xc3\xb3n'
p1609
g7
sS'Ghaziabad'
p1610
g2
sS'Westcliff-on-Sea'
p1611
g347
sS'Phaya Thai'
p1612
g22
sS'Coquitlam'
p1613
g20
sS'Marfell'
p1614
g36
sS'Kov\xc3\xa1lov'
p1615
g58
sS'\xd0\x9c\xd0\xb8\xd0\xbd\xd1\x81\xd0\xba'
p1616
g32
sS'Edgewater'
p1617
g11
sS'Tanjong Katong'
p1618
g80
sS'Londonderry'
p1619
g1305
sS'Cumberland'
p1620
g7
sS'Ravenna'
p1621
g58
sS'Al Wakra'
p1622
g22
sS'Zona Industriale'
p1623
g51
sS'Murrieta'
p1624
g11
sS'Tanah Abang'
p1625
g36
sS'Siero'
p1626
g80
sS'Daskroi'
p1627
S'UNKNOWN'
p1628
sS'Cambori\xc3\xba'
p1629
g18
sS'Ashford'
p1630
g557
sS'Hernani'
p1631
g7
sS'Valencia'
p1632
g18
sS'Hradec Kr\xc3\xa1lov\xc3\xa9'
p1633
g7
sS'Chandler'
p1634
g2
sS'Montevideo'
p1635
g20
sS'Bingham'
p1636
g126
sS'Mariestad'
p1637
g7
sS'Dunmow'
p1638
g146
sS'Nashville'
p1639
g32
sS'Bay Hill'
p1640
g2
sS'Berne'
p1641
g7
sS'Scotch Plains'
p1642
g71
sS'Kramfors'
p1643
g58
sS'Leatherhead'
p1644
g123
sS'Sort'
p1645
g11
sS'Larrivi\xc3\xa8re-Saint-Savin'
p1646
g11
sS'Sabaudia'
p1647
g11
sS'Brumadinho'
p1648
g7
sS'Plano'
p1649
g2
sS'Beaverton'
p1650
g7
sS'Guadassuar'
p1651
g7
sS'Ubi'
p1652
g61
sS'Parabiago'
p1653
g28
sS'Leros'
p1654
g2
sS'Torrej\xc3\xb3n de Ardoz'
p1655
g36
sS'Chandigarh'
p1656
g11
sS'Jyv\xc3\xa4skyl\xc3\xa4'
p1657
g2
sS'Barcelone'
p1658
g7
sS'Shipley'
p1659
g135
sS'\xe6\x9d\xad\xe5\xb7\x9e\xe5\xb8\x82'
p1660
g13
sS'Kansas City'
p1661
g80
sS'Ciudad de M\xc3\xa9xico'
p1662
g28
sS'Cainta'
p1663
g58
sS'St Paul'
p1664
g86
sS'Moulton'
p1665
g126
sS'Barber\xc3\xaache'
p1666
g4
sS'\xe6\xb3\x89\xe4\xbd\x90\xe9\x87\x8e\xe5\xb8\x82'
p1667
g20
sS'N\xc3\xbdrov'
p1668
g20
sS'North Dumfries'
p1669
g126
sS'Lich'
p1670
g11
sS'Bilzen'
p1671
g7
sS'Petr\xc5\xbealka'
p1672
g7
sS'\xd0\x95\xd0\xba\xd0\xb0\xd1\x82\xd0\xb5\xd1\x80\xd0\xb8\xd0\xbd\xd0\xb1\xd1\x83\xd1\x80\xd0\xb3'
p1673
g58
sS'T\xc3\xb8nder'
p1674
g36
sS'Todmorden'
p1675
g123
sS'Fort Snelling'
p1676
g20
sS'Reno'
p1677
g7
sS'Berwick-upon-Tweed'
p1678
g126
sS'Sunshine North'
p1679
g18
sS'Carlton'
p1680
g20
sS'Pully'
p1681
g36
sS'Chipping Norton'
p1682
g146
sS'Holb\xc3\xa6k'
p1683
g51
sS'Milwaukee'
p1684
g7
sS'Bottrop'
p1685
g7
sS'Sula'
p1686
g7
sS'Toorak'
p1687
g36
sS'Barrow-in-Furness'
p1688
g135
sS'Laufen-Uhwiesen'
p1689
g20
sS'Port Charlotte'
p1690
g7
sS'Versoix'
p1691
g61
sS'Rakkestad'
p1692
g51
sS'Oslo'
p1693
g4
sS'Lipa City'
p1694
g80
sS'Charleroi'
p1695
g7
sS'Fortaleza'
p1696
g7
sS"Platja d'Aro"
p1697
g7
sS'Santa Rosa'
p1698
g51
sS'Puerto Princesa City'
p1699
g13
sS'Enfield'
p1700
g182
sS'Bigues i Riells'
p1701
g28
sS'Peniche'
p1702
g7
sS'Polom'
p1703
g58
sS'Sterling'
p1704
g7
sS'Cowan'
p1705
g13
sS'Sandwich'
p1706
g126
sS'Showa-Ku, Nagoya'
p1707
g67
sS'Innsbruck'
p1708
g22
sS'Hartford'
p1709
g7
sS'Changi'
p1710
g32
sS'Ruhbank'
p1711
g7
sS'Frederiksberg'
p1712
g4
sS'Hamont'
p1713
g4
sS'Hamina'
p1714
g7
sS'Wintger'
p1715
g36
sS'Olomouc'
p1716
g32
sS'Gentofte'
p1717
g4
sS'Nuremberg'
p1718
g22
sS'Buxheim'
p1719
g58
sS'Ar Rayy\xc4\x81n'
p1720
g22
sS'Mont-Roig del Camp'
p1721
g58
sS'Bargoed'
p1722
g16
sS'Campbells Bay'
p1723
g51
sS'Topsail'
p1724
g2
sS'\xe6\x96\xb0\xe5\x8c\x97\xe5\xb8\x82'
p1725
g7
sS'Waltham Cross'
p1726
g13
sS'Mons'
p1727
g4
sS'Vigo'
p1728
g20
sS'Spoltore'
p1729
g51
sS'\xce\x9a\xce\xb5\xcf\x81\xce\xb1\xcf\x84\xce\xad\xce\xb1\xcf\x82'
p1730
g22
sS'Marburg'
p1731
g36
sS'\xe5\xae\x81\xe6\xb3\xa2\xe5\xb8\x82'
p1732
g71
sS'Brookside'
p1733
g11
sS'Atizap\xc3\xa1n de Zaragoza'
p1734
g58
sS'Skedsmo'
p1735
g7
sS'Thatcham'
p1736
g92
sS'Long Beach'
p1737
g80
sS'Troy'
p1738
g28
sS'Duisburg'
p1739
g58
sS'London'
p1740
g110
sS'Ercolano'
p1741
g22
sS'Eschweiler'
p1742
g7
sS'KwaMashu'
p1743
g11
sS'\xd0\x9a\xd0\xb0\xd0\xb7\xd0\xb0\xd0\xbd\xd1\x8c'
p1744
g7
sS'Needham'
p1745
g7
sS'Derendingen'
p1746
g7
sS'Bressanvido'
p1747
g36
sS'Brandon'
p1748
g4
sS'Trieste'
p1749
g7
sS'Kolkata'
p1750
g20
sS'Southern Suburbs'
p1751
S'UNKNOWN'
p1752
sS'Swansea'
p1753
g336
sS'Southwell'
p1754
g126
sS'College Park'
p1755
g20
sS'Wawayanda'
p1756
g36
sS'Brentwood'
p1757
g32
sS'\xc3\x85rhus'
p1758
g4
sS'Cinisello Balsamo'
p1759
g28
sS'Taintignies'
p1760
g120
sS'Newmarket'
p1761
g347
sS'Gahanna'
p1762
g7
sS'Burwood'
p1763
g61
sS'Nijmegen'
p1764
g80
sS'Lu\xc4\x8denec'
p1765
g51
sS'Larache'
p1766
g67
sS'Calonge'
p1767
g22
sS'Orchard'
p1768
g51
sS'Oswestry'
p1769
g123
sS'Wichita'
p1770
g80
sS'San Jose'
p1771
g51
sS'Les Pavillons-sous-Bois'
p1772
g11
sS'San Jos\xc3\xa9'
p1773
g67
sS'Tranent'
p1774
g126
sS'Ripley'
p1775
g11
sS'Manati'
p1776
g7
sS'Birkenhead'
p1777
g126
sS'K\xc3\xb6ping'
p1778
g51
sS'Windermere'
p1779
g135
sS'Villach'
p1780
g20
sS'Unterschlei\xc3\x9fheim'
p1781
g7
sS'Wednesbury'
p1782
g83
sS'Saint-Paul'
p1783
g11
sS'Manzanares el Real'
p1784
g61
sS'Huntersville'
p1785
g58
sS'West Coast'
p1786
g20
sS'Medell\xc3\xadn'
p1787
g13
sS'Peel en Maas'
p1788
g7
sS'Bernissart'
p1789
g18
sS'Gretna'
p1790
g2
sS'West Nasr City'
p1791
g4
sS'Derby'
p1792
g347
sS'Middletown'
p1793
g61
sS'Budapest IX. ker\xc3\xbclet'
p1794
g7
sS'Haywards Heath'
p1795
g149
sS'Aseret'
p1796
g7
sS'Muntinlupa City'
p1797
g20
sS'Romano Canavese'
p1798
g7
sS'Ljubljana'
p1799
g58
sS'Issaquah'
p1800
g22
sS'Rotterdam'
p1801
g22
sS'Alt\xc4\xb1ntepe'
p1802
g20
sS'Sittingbourne'
p1803
g359
sS'Stord'
p1804
g67
sS'Neftenbach'
p1805
g36
sS'Fort Lauderdale'
p1806
g4
sS'Saint-Pierre-l\xc3\xa8s-Nemours'
p1807
g11
sS'Santar\xc3\xa9m'
p1808
g20
sS'Sk\xc3\xb6vde'
p1809
g7
sS'Silex'
p1810
g22
sS'Li\xc3\xa9vin'
p1811
g20
sS'Santa Cruz'
p1812
g36
sS'Kunming'
p1813
g36
sS'Lamia'
p1814
g4
sS'Macclesfield'
p1815
g135
sS'Lilienthal'
p1816
g13
sS'Wanzleben-B\xc3\xb6rde'
p1817
g2
sS'G\xc3\xa4vle'
p1818
g18
sS'Torre\xc3\xb3n'
p1819
g32
sS'\xd7\x94\xd7\x95\xd7\x93 \xd7\x94\xd7\xa9\xd7\xa8\xd7\x95\xd7\x9f'
p1820
g36
sS'Kincardine'
p1821
g58
sS'Shenango'
p1822
g2
sS'Little Rock'
p1823
g71
sS'Illkirch-Graffenstaden'
p1824
g51
sS'Oreye'
p1825
g7
sS'Tunis'
p1826
g32
sS'Canterbury'
p1827
g51
sS'Montmorency'
p1828
g67
sS'Trondheim'
p1829
g67
sS'Barueri'
p1830
g2
sS'Battaglia Terme'
p1831
g58
sS'Pradamano'
p1832
g7
sS'Mainburg'
p1833
g2
sS'Villingen-Schwenningen'
p1834
g7
sS'Sankt Leon-Rot'
p1835
g7
sS'Tourlaville'
p1836
g7
sS'San Agust\xc3\xadn del Guadalix'
p1837
g20
sS'Nurmij\xc3\xa4rvi'
p1838
g7
sS'Parmelia'
p1839
g2
sS'Giubiasco'
p1840
g20
sS'North Bethesda'
p1841
g4
sS'Badia Gran'
p1842
g20
sS'San Gabriel'
p1843
g61
sS'Borl\xc3\xa4nge'
p1844
g51
sS'Key Largo'
p1845
g13
sS'Egedal'
p1846
g67
sS'Br\xc3\xb8nderslev'
p1847
g22
sS'Kernersville'
p1848
g7
sS'\xe4\xb9\x94\xe5\x88\xa9'
p1849
g36
sS'Braga'
p1850
g86
sS'Asola'
p1851
g36
sS'St Kilda'
p1852
g28
sS'Ejby'
p1853
g7
sS'\xe5\x80\xab\xe6\x95\xa6'
p1854
g1030
sS'Norrk\xc3\xb6ping'
p1855
g58
sS'Springfield'
p1856
g80
sS'Vilniaus rajonas'
p1857
g4
sS'Karlskrona'
p1858
g4
sS'Baldock'
p1859
g92
sS'Morpeth'
p1860
g128
sS'V\xc3\xa4nersborg'
p1861
g11
sS'Woodbury'
p1862
g20
sS'Simi Valley'
p1863
g22
sS'Schwechat'
p1864
g36
sS'Woodford Green'
p1865
g13
sS'Burnley'
p1866
g24
sS'Holzkirchen'
p1867
g7
sS'Ankara'
p1868
g11
sS'Caldicot'
p1869
g126
sS'\xeb\xa6\xac\xeb\x94\xa9'
p1870
g7
sS'Swadlincote'
p1871
g135
sS'Lohja'
p1872
g51
sS'Greenstone'
p1873
g58
sS'Colon'
p1874
g7
sS'Ashburton'
p1875
g126
sS'\xce\x94\xce\xb1\xcf\x81\xce\xac\xcf\x84\xcf\x83\xce\xbf\xcf\x82'
p1876
g7
sS'G\xc3\xbctersloh'
p1877
g20
sS'Erding'
p1878
g7
sS'Wellingborough'
p1879
g16
sS'Guldifeld'
p1880
g13
sS'D\xc3\xbclmen'
p1881
g2
sS'Borg\xc3\xa5'
p1882
g20
sS'Torup'
p1883
g4
sS'Freiburg im Breisgau'
p1884
g4
sS'Barhamsville'
p1885
g4
sS'Plymouth'
p1886
g557
sS'Houten'
p1887
g51
sS'Timr\xc3\xa5'
p1888
g7
sS'Mersch'
p1889
g13
sS'Almaty'
p1890
g58
sS'Ullensaker'
p1891
g4
sS'Seynod'
p1892
g7
sS'Cascais'
p1893
g80
sS'Marlow'
p1894
g146
sS'New Haven'
p1895
g2
sS'Te\xc5\x9fvikiye'
p1896
g4
sS'Saffron Walden'
p1897
g347
sS'Greenford'
p1898
g110
sS'M\xc3\xb3stoles'
p1899
g80
sS'Ciudad de Guatemala'
p1900
g22
sS'Royal Oak'
p1901
g71
sS'Roquetas de Mar'
p1902
g7
sS'Birgitz'
p1903
g22
sS'Wauconda'
p1904
g4
sS'Swindon'
p1905
g24
sS'Varde'
p1906
g36
sS'Bladel'
p1907
g36
sS'Y\xc4\xb1ld\xc4\xb1z'
p1908
g58
sS'Musile di Piave'
p1909
g4
sS'\xe4\xbc\x8a\xe6\x96\xaf\xe5\x9d\xa6\xe5\xa0\xa1'
p1910
g7
sS'\xe5\xa4\xa7\xe5\xae\x89\xe5\x8d\x80'
p1911
g22
sS'Vilafant'
p1912
g2
sS'Basiglio'
p1913
g67
sS'Moon'
p1914
g2
sS'Dietwiller'
p1915
g61
sS'Wheatfield'
p1916
g126
sS'Northallerton'
p1917
g326
sS'Lentini'
p1918
g22
sS'Traun'
p1919
g71
sS'Waalre'
p1920
g36
sS'Rochdale'
p1921
g326
sS'Newtown'
p1922
g146
sS'Arboga'
p1923
g58
sS'Tipp City'
p1924
g2
sS'Vantaa'
p1925
g51
sS'Bradford-on-Avon'
p1926
g126
sS'Merrylands'
p1927
g67
sS'Noordoostpolder'
p1928
g7
sS'Uberl\xc3\xa2ndia'
p1929
g20
sS'El Maarif'
p1930
g22
sS'Fremont'
p1931
g67
sS'Bi\xc3\xa8vres'
p1932
g2
sS"Ville-d'Avray"
p1933
g7
sS'Newtownabbey'
p1934
g347
sS'Adliswil'
p1935
g7
sS'Chiusi'
p1936
g4
sS'Ploemeur'
p1937
g36
sS'Brno'
p1938
g4
sS'Hamilton East'
p1939
g36
sS'Invergordon'
p1940
g83
sS'Eimeo'
p1941
g4
sS'Kebayoran Lama'
p1942
g13
sS'Luton'
p1943
g24
sS'Haderslev'
p1944
g7
sS'Ninove'
p1945
g7
sS'K\xc3\xbcps'
p1946
g4
sS'Sale'
p1947
g7
sS'Mermaid Waters'
p1948
g22
sS'Massalfassar'
p1949
g36
sS'Gossau'
p1950
g13
sS'Landskrona'
p1951
g7
sS'G\xc3\xb6ttingen'
p1952
g20
sS'Bamako'
p1953
g61
sS'Allamuchy'
p1954
g11
sS'Retiro'
p1955
g36
sS'Grindelwald'
p1956
g7
sS'Ware'
p1957
g4
sS'Gattatico'
p1958
g32
sS'Worksop'
p1959
g268
sS'Hartlepool'
p1960
g24
sS'Beaumont'
p1961
g7
sS'Bytom'
p1962
g7
sS'Ballyboden'
p1963
g51
sS'Nottingham'
p1964
g24
sS'Eastbourne'
p1965
g16
sS'Porvoo'
p1966
g36
sS'Cwmbran'
p1967
g24
sS'Weybridge'
p1968
g24
sS'La Bretagne'
p1969
g28
sS'Saint-L\xc3\xb4'
p1970
g7
sS'Braunau am Inn'
p1971
g51
sS'Santa Monica'
p1972
g7
sS'Ferno'
p1973
g7
sS'Pleasant Ridge'
p1974
g20
sS'Austin'
p1975
g4
sS'W\xc3\xb6lfersheim'
p1976
g36
sS'Novelty'
p1977
g2
sS'Redditch'
p1978
g326
sS'Denver'
p1979
g32
sS'Annandale'
p1980
g7
sS'Amritsar'
p1981
g28
sS'Calvi\xc3\xa0'
p1982
g28
sS'Ho Chi Minh City'
p1983
g4
sS'\xc3\x96ster\xc3\xa5ker'
p1984
g58
sS'Salzgitter'
p1985
g7
sS'Schwyz'
p1986
g7
sS'Soignies'
p1987
g7
sS'6th October Second'
p1988
g20
sS'Bad Essen'
p1989
g58
sS'Tanjung Priok'
p1990
g58
sS'Nordheim'
p1991
g58
sS'Brooklyn Park'
p1992
g61
sS'Taman Perindustrian Tago'
p1993
g1628
sS'Svinninge'
p1994
g7
sS'Akhisar'
p1995
g36
sS'Bratislava'
p1996
g86
sS'Trier'
p1997
g67
sS'Beersel'
p1998
g7
sS'Stevenage'
p1999
g268
sS'\xe6\x9d\xbf\xe6\xa9\x8b\xe5\x8d\x80'
p2000
g7
sS'Overland Park'
p2001
g71
sS'Herne'
p2002
g2
sS'Spotorno'
p2003
g11
sS'\xec\x84\x9c\xec\xb4\x88\xea\xb5\xac'
p2004
g22
sS'Menomonie town'
p2005
g629
sS'Godalming'
p2006
g92
sS'Fairfax Station'
p2007
g58
sS'Patti'
p2008
g7
sS'Oppegaard'
p2009
g58
sS'Senda Real'
p2010
g7
sS'Walla Walla'
p2011
g36
sS'Northampton'
p2012
g336
sS'Chavannes-pr\xc3\xa8s-Renens'
p2013
g7
sS'Tucson'
p2014
g11
sS'Fr\xc3\xa9thun'
p2015
g18
sS'Tysnes'
p2016
g36
sS'Saint Augustine'
p2017
g11
sS'K\xc3\xa5llered'
p2018
g51
sS'Mettet'
p2019
g36
sS'B\xc3\xb6wingen an der Attert'
p2020
g11
sS'K\xc3\xb6ln'
p2021
g32
sS'Melide'
p2022
g4
sS'Fredensborg'
p2023
g58
sS'\xec\x86\xa1\xed\x8c\x8c\xea\xb5\xac'
p2024
g36
sS'Vestre Toten'
p2025
g4
sS'Istanbul'
p2026
g4
sS'E.U.R.'
p2027
g20
sS'Odenton'
p2028
g7
sS'Canton'
p2029
g13
sS'Richmond'
p2030
g86
sS'Providence'
p2031
g2
sS'Pekan Seria'
p2032
g650
sS'Nulvi'
p2033
g22
sS'Ballymena'
p2034
g24
sS'Asperg'
p2035
g36
sS'Sirnach'
p2036
g13
sS"Fara Gera d'Adda"
p2037
g4
sS'Carvin'
p2038
g67
sS'\xe9\x87\x91\xe6\xb2\xa2\xe5\xb8\x82'
p2039
g61
sS'Brighton East'
p2040
g22
sS'Rijsel'
p2041
g80
sS'Gnosj\xc3\xb6'
p2042
g51
sS'Columbus'
p2043
g20
sS'Lilydale'
p2044
g7
sS'Gwangjin-gu'
p2045
g2
sS'Quilpu\xc3\xa9'
p2046
g36
sS'Lolland'
p2047
g36
sS'Ballyclare'
p2048
g24
sS'Mionnay'
p2049
g7
sS'Varese'
p2050
g2
sS'Cork'
p2051
g4
sS'Sarpsborg'
p2052
g51
sS'Middelfart'
p2053
g18
sS'Almansa'
p2054
g28
sS'Springvale'
p2055
g7
sS'Hong Kong'
p2056
g18
sS'Porthcawl'
p2057
g326
sS'Haveli'
p2058
g4
sS'Livingston'
p2059
g28
sS'Mentor'
p2060
g22
sS'Tynaarlo'
p2061
g4
sS'Alteglofsheim'
p2062
g4
sS'\xc3\x85krehamn'
p2063
g7
sS'San Luis Potos\xc3\xad'
p2064
g36
sS'Duchcov'
p2065
g4
sS'Huittinen'
p2066
g36
sS'Attleborough'
p2067
g126
sS'Kapar'
p2068
g4
sS'Frederikshavn'
p2069
g28
sS'Roosendaal'
p2070
g7
sS'Lidk\xc3\xb6ping'
p2071
g4
sS'Toulouse'
p2072
g67
sS'Canc\xc3\xban'
p2073
g36
sS'Bury'
p2074
g135
sS'Druento'
p2075
g7
sS'Huddinge'
p2076
g86
sS'Ploufragan'
p2077
g7
sS'Denizk\xc3\xb6\xc5\x9fkler'
p2078
g11
sS'Elizabeth Hills'
p2079
g71
sS'Maidstone'
p2080
g24
sS'Lond\xc3\xbdn'
p2081
g110
sS'Freagh'
p2082
g7
sS'Kajang'
p2083
g67
sS'Nordhorn'
p2084
g61
sS'Oklahoma City'
p2085
g7
sS'Gallatin'
p2086
g20
sS'Denton'
p2087
g51
sS'Chatuchak'
p2088
g7
sS'\xce\x95\xce\xbb\xce\xbb\xce\xb7\xce\xbd\xce\xb9\xce\xba\xce\xbf\xcf\x8d'
p2089
g4
sS'Peachtree City'
p2090
g22
sS'Basseneville'
p2091
g58
sS'Biella'
p2092
g36
sS'Buccinasco'
p2093
g67
sS'Putignano'
p2094
g13
sS'Glasgow'
p2095
g24
sS'Ashington'
p2096
g94
sS'Paisley'
p2097
g94
sS'Zagreb'
p2098
g67
sS'Nievern'
p2099
g22
sS'Poschiavo'
p2100
g20
sS'Merelbeke'
p2101
g7
sS'Limbiate'
p2102
g4
sS'Dundee'
p2103
g557
sS'Vejle'
p2104
g4
sS'Germiston'
p2105
g20
sS'Fosses-la-Ville'
p2106
g7
sS'Hanover'
p2107
g71
sS'Rimini'
p2108
g2
sS'Herent'
p2109
g4
sS'Lidcombe'
p2110
g7
sS'Makasar'
p2111
g28
sS'Pioltello'
p2112
g71
sS'Urumqi'
p2113
g58
sS'Folkestone'
p2114
g92
sS'Saint-Privat-des-Vieux'
p2115
g51
sS'Treviglio'
p2116
g67
sS'Stowmarket'
p2117
g135
sS'Casale Monferrato'
p2118
g67
sS'Great Yarmouth'
p2119
g347
sS'Brucoli'
p2120
g7
sS'Wateringen'
p2121
g51
sS'Churchill'
p2122
g2
sS'Llan\xc3\xa7\xc3\xa0'
p2123
g51
sS'Belgrade'
p2124
g7
sS'\xe5\xa4\xa7\xe9\x98\xaa\xe5\xb8\x82\xe8\xa5\xbf\xe5\x8c\xba'
p2125
g22
sS'Corsham'
p2126
g126
sS'Lower Sackville'
p2127
g71
sS'Attard'
p2128
g7
sS'Sant Vicen\xc3\xa7 Dels Horts'
p2129
g2
sS'Huntsville'
p2130
g71
sS'\xe9\xbe\x8d\xe6\xbd\xad\xe9\x84\x89'
p2131
g71
sS'Gr\xc4\x99bocice'
p2132
g20
sS'Torpoint'
p2133
g92
sS'Almere'
p2134
g58
sS'Ocoyoacac'
p2135
g36
sS'Towcester'
p2136
g359
sS'Sant Fruit\xc3\xb3s de Bages'
p2137
g7
sS'\xd0\xa2\xd0\xbe\xd1\x80\xd0\xbd\xd1\x82\xd0\xbe\xd0\xbd-\xd0\xa5\xd0\xb8\xd1\x82'
p2138
S'UNKNOWN'
p2139
sS'Fishers'
p2140
g22
sS'Kronach'
p2141
g120
sS'Ermatingen'
p2142
g36
sS'Altea'
p2143
g11
sS'Carona'
p2144
g67
sS'Mitcham'
p2145
g110
sS'Chihuahua'
p2146
g20
sS'Sandy Springs'
p2147
g61
sS'Laval'
p2148
g71
sS'Tintagel'
p2149
g135
sS'Otopeni'
p2150
g86
sS'Brunswick'
p2151
g11
sS'Trinity'
p2152
g86
sS'Amstelhoek'
p2153
g4
sS'De Bilt'
p2154
g13
sS'Matina Pangi'
p2155
g80
sS'Marlborough'
p2156
g20
sS'Kemalpa\xc5\x9fa'
p2157
g2
sS'Ouder-Amstel'
p2158
g36
sS'Ecuras'
p2159
g7
sS'Hamburg'
p2160
g28
sS'Jakarta Timur'
p2161
g2
sS'San Ramon'
p2162
g11
sS'Thorndon'
p2163
g326
sS'Livorno'
p2164
g22
sS'Brutus'
p2165
g2
sS'LOCDENIED'
p2166
g1628
sS'Leesburg'
p2167
g7
sS'Winterthur'
p2168
g20
sS'Hermelinghen'
p2169
g86
sS'Bogot\xc3\xa1'
p2170
g80
sS'Peschiera Borromeo'
p2171
g20
sS'Gro\xc3\x9fbeeren'
p2172
g20
sS'Bahan'
p2173
g11
sS'Frechen'
p2174
g28
sS'Amblainville'
p2175
g4
sS'Awel Al Raml'
p2176
g1628
sS'Bournemouth'
p2177
g359
sS'R\xc3\xb6dinghausen'
p2178
g20
sS'Makati'
p2179
g7
sS'Parker'
p2180
g11
sS'Sheringham'
p2181
g135
sS'Kishinev'
p2182
g7
sS'Tualatin'
p2183
g11
sS'Cornell\xc3\xa0 de Llobregat'
p2184
g7
sS'S\xc3\xa3o Domingos de Rana'
p2185
g7
sS'Diss'
p2186
g347
sS'Trevignano'
p2187
g2
sS'Savannah'
p2188
g20
sS'Petal'
p2189
g11
sS'Newton'
p2190
g36
sS'Raversbeuren'
p2191
g7
sS'Benoni'
p2192
g22
sS'Para\xc3\xb1aque City'
p2193
g7
sS'Bingham Farms'
p2194
g32
sS'Skegness'
p2195
g126
sS'Sandvika'
p2196
g22
sS'Bengaluru'
p2197
g36
sS'Bilston'
p2198
g268
sS'Raufoss'
p2199
g7
sS'Beernem'
p2200
g32
sS'Alings\xc3\xa5s'
p2201
g28
sS'Esbjerg'
p2202
g22
sS'\xe8\xa5\xbf\xe5\xb1\xaf\xe5\x8d\x80'
p2203
g11
sS'Luxembourg'
p2204
g51
sS'Jefferson'
p2205
g22
sS'D\xc3\xa9cines-Charpieu'
p2206
g7
sS'\xce\x9a\xce\xb1\xce\xbb\xce\xb1\xce\xbc\xce\xb1\xcf\x81\xce\xb9\xce\xac\xcf\x82'
p2207
g36
sS'Granville'
p2208
g86
sS'Pewaukee city'
p2209
g7
sS'Aliwal North'
p2210
g20
sS'Reading'
p2211
g24
sS'Mylapore Tiruvallike'
p2212
g387
sS'Castle Hill'
p2213
g58
sS'Krugersdorp'
p2214
g61
sS'Angra do Hero\xc3\xadsmo'
p2215
g4
sS'Puconci'
p2216
g36
sS'Yacoub El Mansour'
p2217
g7
sS'Nuthetal'
p2218
g22
sS'Maring\xc3\xa1'
p2219
g13
sS'Leiden'
p2220
g13
sS'Bergheim'
p2221
g80
sS'G\xc3\xb6nen'
p2222
g58
sS'Kennesaw'
p2223
g61
sS'Curepipe'
p2224
g7
sS'Lorenskog'
p2225
g80
sS'Highland Park'
p2226
g11
sS'Catanzaro'
p2227
g7
sS'Kuwait City'
p2228
g20
sS'Satigny'
p2229
g11
sS'Lindau'
p2230
g20
sS'\xe5\x93\xa5\xe6\x9c\xac\xe5\x93\x88\xe6\xa0\xb9'
p2231
g22
sS'Breda'
p2232
g67
sS'Tongi'
p2233
g18
sS'L\xc3\xa4nna'
p2234
g22
sS'K\xc3\xa4rp\xc3\xa4nen'
p2235
g58
sS'Elmhurst'
p2236
g22
sS"Saint-Georges-d'Orques"
p2237
g20
sS'Barcelona'
p2238
g4
sS'Sch\xc3\xb6mberg'
p2239
g13
sS'Bah\xc3\xa7elievler'
p2240
g86
sS'Hettenshausen'
p2241
g58
sS'Petaling Jaya'
p2242
g4
sS'Pelham'
p2243
g11
sS'\xc5\x9eenlik'
p2244
g20
sS'Plestin-les-Gr\xc3\xa8ves'
p2245
g86
sS'Seattle'
p2246
g20
sS'\xd0\x90\xd1\x80\xd1\x85\xd0\xb0\xd0\xbd\xd0\xb3\xd0\xb5\xd0\xbb\xd1\x8c\xd1\x81\xd0\xba'
p2247
g32
sS'Peterhead'
p2248
g135
sS'Br\xc3\xa9tigny-sur-Orge'
p2249
g51
sS'Boston'
p2250
g4
sS'Kennewick'
p2251
g51
sS'Triggiano'
p2252
g4
sS'Tysons Corner'
p2253
g36
sS'Kuortane'
p2254
g51
sS'Caxada'
p2255
S'UNKNOWN'
p2256
sS'Lausanne'
p2257
g13
sS'Kerteminde'
p2258
g7
sS'Borgo a Cascia'
p2259
g71
sS'Vechta'
p2260
g7
sS'Arendal'
p2261
g22
sS'Fondarella'
p2262
g22
sS'\xe5\xa4\xa7\xe9\x98\xaa\xe5\xb8\x82\xe4\xb8\xad\xe5\xa4\xae\xe5\x8c\xba'
p2263
g36
sS'Homewood'
p2264
g22
sS'\xe4\xbc\xa6\xe6\x95\xa6'
p2265
g110
sS'Leonberg'
p2266
g2
sS'Ham-sur-Heure-Nalinnes'
p2267
g7
sS'Saint-Gilles'
p2268
g36
sS'Georgetown'
p2269
g11
sS'North Attleboro'
p2270
g36
sS'Vinchiaturo'
p2271
g58
sS'Falun'
p2272
g61
sS'Gjovik'
p2273
g13
sS'\xe5\xa4\xa9\xe6\xb4\xa5\xe5\xb8\x82\xe5\xb8\x82\xe8\xbe\x96\xe5\x8c\xba'
p2274
g1547
sS'Gilbert'
p2275
g7
sS'Mbombela'
p2276
g67
sS'Ansfelden'
p2277
g28
sS'Novi'
p2278
g58
sS'Emmen'
p2279
g7
sS'Aabenraa'
p2280
g7
sS"Les Planes D'hostoles"
p2281
g58
sS'Elmsford'
p2282
g13
sS'Tallboda'
p2283
g13
sS'Great Falls'
p2284
g32
sS'Delta'
p2285
g58
sS'It\xc3\xa4-Hakkila'
p2286
g67
sS'Gangnamgu'
p2287
g629
sS'\xce\xa7\xce\xac\xce\xbd\xcf\x83\xce\xbb\xce\xbf\xce\xbf\xcf\x85'
p2288
g655
sS'Shreveport'
p2289
g7
sS'Vineland'
p2290
g7
sS'Grand Junction'
p2291
g22
sS'Kaltern an der Weinstrasse'
p2292
g11
sS'Milano'
p2293
g4
sS'Ottawa'
p2294
g36
sS'Staines-upon-Thames'
p2295
g24
sS'Maurepas'
p2296
g4
sS'Port Talbot'
p2297
g83
sS'Fort Augustus'
p2298
g123
sS'Prosser'
p2299
g22
sS'Stockport'
p2300
g128
sS'Hoogvliet'
p2301
g36
sS'Cleckheaton'
p2302
g135
sS'Puducherry'
p2303
g2
sS'Thaleth Al Qahera Al Gadida'
p2304
g1504
sS'Banstead'
p2305
g359
sS'Castletown'
p2306
g11
sS'Radnor Township'
p2307
g4
sS'\xd8\xa7\xd9\x84\xd8\xb1\xd9\x8a\xd8\xa7\xd9\x86'
p2308
g7
sS'New Orleans'
p2309
g22
sS'Rettore Mezzavia'
p2310
S'UNKNOWN'
p2311
sS'\xe5\xa4\x9a\xe6\x91\xa9\xe5\xb8\x82'
p2312
g7
sS'City Beach'
p2313
g32
sS'Belper'
p2314
g94
sS'Uriangato'
p2315
g32
sS'\xd0\x90\xd0\xbb\xd0\xbc\xd0\xb0-\xd0\x90\xd1\x82\xd0\xb0'
p2316
g22
sS'Kuopio'
p2317
g28
sS'\xe5\xb9\xbf\xe5\xb7\x9e\xe5\xb8\x82'
p2318
g22
sS'Mount Roskill'
p2319
g22
sS'Jurong'
p2320
g2
sS'Mumbai'
p2321
g18
sS'Slovenske Konjice'
p2322
g7
sS'Homburg'
p2323
g2
sS'Namsos'
p2324
g28
sS'\xd7\x92\xd7\x91\xd7\xa2\xd7\xaa \xd7\xa9\xd7\x9e\xd7\x95\xd7\x90\xd7\x9c'
p2325
g13
sS'Carterton'
p2326
g28
sS'Pinsdorf'
p2327
g22
sS'Kung\xc3\xa4lv'
p2328
g7
sS'Montr\xc3\xa9al'
p2329
g28
sS'\xd0\x9a\xd0\xbe\xd0\xb2\xd0\xb5\xd0\xbd\xd1\x82\xd1\x80\xd0\xb8'
p2330
g146
sS'Markham'
p2331
g67
sS'Newbury Park'
p2332
g28
sS'Hautmont'
p2333
g2
sS'Bous'
p2334
g22
sS'\xce\xa0\xce\xb1\xcf\x84\xcf\x81\xce\xad\xcf\x89\xce\xbd'
p2335
g13
sS'Sayreville'
p2336
g36
sS'M\xc3\xa9zy-sur-Seine'
p2337
g7
sS'Zaanstad'
p2338
g7
sS'Lo Barnechea'
p2339
g22
sS'Ravensburg'
p2340
g11
sS'Jevenstedt'
p2341
g2
sS'Minervino Murge'
p2342
g32
sS'Kortrijk'
p2343
g86
sS'Vastervik'
p2344
g71
sS'Ra\xc4\x8de - Fram'
p2345
g36
sS'Randers'
p2346
g28
sS'Lagos'
p2347
g7
sS'Colombo'
p2348
g71
sS'San Isidro'
p2349
g28
sS'Schio'
p2350
g51
sS'Gent'
p2351
g58
sS'\xe3\x82\xb5\xe3\x83\x83\xe3\x83\x81\xe3\x83\xa3\xe3\x83\xa0'
p2352
g629
sS'Coventry'
p2353
g24
sS'Changsha'
p2354
g36
sS'Bachenb\xc3\xbclach'
p2355
g71
sS'Lafayette'
p2356
g2
sS'Rollin'
p2357
g36
sS'Sitges'
p2358
g18
sS'Kongsvinger'
p2359
g11
sS'\xe3\x83\x87\xe3\x83\xa5\xe3\x83\xbc\xe3\x82\xa4\xe3\x83\x93\xe3\x83\xbc\xe3\x83\x81'
p2360
g650
sS'Tepatitl\xc3\xa1n de Morelos'
p2361
g7
sS'Hougang'
p2362
g58
sS'Bod\xc3\xb8'
p2363
g67
sS'Huntingdon'
p2364
g24
sS'Chi\xc3\xa8vres'
p2365
g4
sS'Bethel Park'
p2366
g18
sS'Dumaguete'
p2367
g7
sS'Borchtlombeek'
p2368
g36
sS'Paglieta'
p2369
g2
sS'\xd7\x9c\xd7\x95\xd7\xa0\xd7\x93\xd7\x95\xd7\x9f'
p2370
g261
sS'Cagliari'
p2371
g7
sS'Issy-les-Moulineaux'
p2372
g67
sS'Uccle'
p2373
g36
sS'Osio Sopra'
p2374
g86
sS'Balzan'
p2375
g11
sS'La Rouquette'
p2376
g22
sS'Budapest X. ker\xc3\xbclet'
p2377
g58
sS'Narita'
p2378
g2
sS'Itanos'
p2379
g58
sS'Lille'
p2380
g86
sS'San Bartolom\xc3\xa9'
p2381
g7
sS'Brigg'
p2382
g123
sS'Taman Zoo View'
p2383
g11
sS'Gombak'
p2384
g2
sS'Vuotso'
p2385
g2
sS'Pasar Rebo'
p2386
g22
sS'Vanves'
p2387
g67
sS'Johannesburg'
p2388
g22
sS'Colorno'
p2389
g71
sS'Kouvola'
p2390
g22
sS'J\xc3\xb5el\xc3\xa4htme'
p2391
g36
sS'Esquimalt'
p2392
g7
sS'Sesto Fiorentino'
p2393
g11
sS'Hj\xc3\xb8rring'
p2394
g7
sS'\xea\xb5\xac\xeb\xa6\xac\xec\x8b\x9c'
p2395
g7
sS'Redmond'
p2396
g58
sS'Courbevoie'
p2397
g71
sS'Tulsa'
p2398
g13
sS'Abu Dhabi'
p2399
g20
sS'Taoyuan County'
p2400
g18
sS'Wedemark'
p2401
g4
sS'Pulai'
p2402
g71
sS'Unanderra'
p2403
g20
sS'Malvar'
p2404
g13
sS'\xe5\x85\xab\xe7\x8e\x8b\xe5\xad\x90\xe5\xb8\x82'
p2405
g67
sS'Kanayannur'
p2406
g387
sS'Marne-la-Vall\xc3\xa9e'
p2407
g51
sS'Bedford'
p2408
g24
sS'Golden Valley'
p2409
g36
sS'La Villeneuve'
p2410
g51
sS'Bukit Timah'
p2411
g7
sS'Dublin'
p2412
g80
sS'Anderstorp'
p2413
g7
sS'Ortado\xc4\x9fu'
p2414
g58
sS'Antrim'
p2415
g24
sS'Eaton'
p2416
g36
sS'Tyres\xc3\xb6'
p2417
g32
sS'Randall'
p2418
g7
sS'Santiago de Compostela'
p2419
g36
sS'Woodville'
p2420
g20
sS'Navarre'
p2421
g86
sS'Newtownards'
p2422
g16
sS'Pozuelo de Alarc\xc3\xb3n'
p2423
g86
sS'\xce\x92\xce\xbf\xcf\x8d\xce\xbb\xce\xb1'
p2424
g32
sS'Wernau (Neckar)'
p2425
g22
sS'Batang Kali'
p2426
g7
sS'Chicago Heights'
p2427
g22
sS'San Juan'
p2428
g13
sS'Gdynia'
p2429
g80
sS'Minneapolis'
p2430
g13
sS'Kada\xc5\x88'
p2431
g22
sS'Telford'
p2432
g336
sS'Salt Lake City'
p2433
g61
sS'Kelsterbach'
p2434
g67
sS'Francavilla Fontana'
p2435
g7
sS'Limerick'
p2436
g4
sS'White Plains'
p2437
g7
sS'Pova\xc5\xbesk\xc3\xa1 Bystrica'
p2438
g58
sS'Enna'
p2439
g32
sS'Reykjav\xc3\xadk'
p2440
g22
sS'Rochester'
p2441
g4
sS'Chalon-sur-Sa\xc3\xb4ne'
p2442
g7
sS'Knoxville'
p2443
g13
sS'Heimsheim'
p2444
g28
sS'Arvada'
p2445
g61
sS'Aspach'
p2446
g20
sS'Caprino Veronese'
p2447
g4
sS'Zollikofen'
p2448
g7
sS'Slough'
p2449
g149
sS'Downers Grove'
p2450
g80
sS'M\xc3\xb6lndal'
p2451
g58
sS'Henley-on-Thames'
p2452
g123
sS'E\xc3\xb0irdir'
p2453
S'UNKNOWN'
p2454
sS'Appleton'
p2455
g28
sS'Ludhiana'
p2456
g13
sS'Dagenham'
p2457
S'London'
p2458
sS'Gustavia'
p2459
g2
sS'D\xc3\xbcbendorf'
p2460
g7
sS'Olten'
p2461
g7
sS'Palomares del R\xc3\xado'
p2462
g7
sS'Saint-Germain-en-Laye'
p2463
g13
sS'Mont-ras'
p2464
g7
sS'Maasgouw'
p2465
g20
sS'Lormont'
p2466
g58
sS'San Crist\xc3\xb3bal de la Laguna'
p2467
g36
sS'Tehran'
p2468
g51
sS'Kangy Angy'
p2469
g13
sS'Colchester'
p2470
g92
sS'Bentleigh'
p2471
g11
sS'Mascot'
p2472
g18
sS'Southampton'
p2473
g83
sS'Albion Park'
p2474
g28
sS'Mohammedia'
p2475
g58
sS'Woodlands'
p2476
g20
sS'Abcoude'
p2477
g7
sS'Blackburn'
p2478
g135
sS'White Rock'
p2479
g36
sS'K\xc3\xb6niggr\xc3\xa4tz'
p2480
g7
sS'Tha Raeng'
p2481
g2
sS'\xe5\xa4\xa7\xe9\x98\xaa\xe5\xb8\x82\xe5\x8c\x97\xe5\x8c\xba'
p2482
g2
sS"King's Lynn"
p2483
g16
sS'San Pedro'
p2484
g11
sS'Castel Maggiore'
p2485
g7
sS'\xe4\xb8\x96\xe7\x94\xb0\xe8\xb0\xb7\xe5\x8c\xba'
p2486
g36
sS'Punggol'
p2487
g36
sS'West Tamworth'
p2488
g7
sS'\xea\xb3\xa0\xec\x96\x91\xec\x8b\x9c'
p2489
g2
sS'Viladecans'
p2490
g67
sS'Gassino Torinese'
p2491
g36
sS'Thurso'
p2492
g557
sS'S\xc3\xa3o Miguel Arcanjo'
p2493
g7
sS'Vandoeuvre-l\xc3\xa8s-Nancy'
p2494
g51
sS'J\xc3\xa9rusalem'
p2495
g7
sS'Ramsgate'
p2496
g268
sS'Cesson-S\xc3\xa9vign\xc3\xa9'
p2497
g51
sS'Struer'
p2498
g4
sS'Baiersdorf'
p2499
g36
sS'Bollullos Par del Condado'
p2500
g71
sS'Schaumburg'
p2501
g18
sS'Luvia'
p2502
g11
sS'Lahore'
p2503
g20
sS'Santa Ana'
p2504
g36
sS'Monasterevin'
p2505
g7
sS'Konyaalt\xc4\xb1'
p2506
g80
sS'Kafr Al Dawwar'
p2507
g7
sS'\xc5\xbdalec'
p2508
g7
sS'Faversham'
p2509
g126
sS'Cary'
p2510
g20
sS'Bracknell'
p2511
g86
sS'Tuve'
p2512
g32
sS'\xd7\x90\xd7\x99\xd7\x9c\xd7\xaa'
p2513
g2
sS'Farnborough'
p2514
g149
sS'Lumphini'
p2515
g80
sS'Kirkwood'
p2516
g7
sS'Vansbro'
p2517
g13
sS'Most'
p2518
g22
sS'Helsingfors'
p2519
g13
sS'Racha Thewa'
p2520
g629
sS'Cartagena De Indias'
p2521
g13
sS'M\xc3\xa5lselv'
p2522
g7
sS'Skara'
p2523
g7
sS'Erbach'
p2524
g80
sS'Tremblay-en-France'
p2525
g4
sS'Karlshamn'
p2526
g36
sS'Antequera'
p2527
g7
sS'Santa Margherita Ligure'
p2528
g61
sS'Stockholm'
p2529
g67
sS'Dearborn'
p2530
g4
sS'Whistler'
p2531
g58
sS'\xe6\x9d\xbe\xe5\xb1\xb1\xe5\xb8\x82'
p2532
g22
sS'Tarija'
p2533
g22
sS'Londra'
p2534
g110
sS'Serpong'
p2535
g7
sS'Esch an der Alzette'
p2536
g67
sS'Mornington'
p2537
g58
sS'\xc3\x96stersund'
p2538
g20
sS'\xeb\xa7\x88\xed\x8f\xac\xea\xb5\xac'
p2539
g20
sS'Stange'
p2540
g7
sS'Lexington'
p2541
g11
sS'Robina'
p2542
g58
sS'Northbrook'
p2543
g11
sS'Les Hauts-Geneveys'
p2544
g7
sS'Westleigh'
p2545
g326
sS'Gibsons'
p2546
g22
sS'Lejre'
p2547
g58
sS'Ciudad del Libertador General San Mart\xc3\xadn'
p2548
g629
sS'Rio de Mouro'
p2549
g18
sS'Horsens'
p2550
g4
sS'Charron'
p2551
g18
sS'Guanajuato'
p2552
g22
sS'Pomiech\xc3\xb3wek'
p2553
g13
sS'Bucure\xc8\x99ti'
p2554
g58
sS'Vicenza'
p2555
g36
sS'Colonie'
p2556
g22
sS'Weerde'
p2557
g7
sS'Mont-Ras'
p2558
g7
sS'San Juan City'
p2559
g20
sS'Wittenwil'
p2560
g7
sS'Viola'
p2561
g36
sS'Woodridge'
p2562
g67
sS'Germaringen'
p2563
g22
sS'Vilagrassa'
p2564
g28
sS'\xc3\x96rebro'
p2565
g36
sS'Carbonara Scrivia'
p2566
g58
sS'Port-Valais'
p2567
g7
sS'Norwich'
p2568
g26
sS'\xe4\xbc\x8a\xe6\x96\xaf\xe7\x89\xb9\xe6\x9c\xac'
p2569
g18
sS'\xd0\x9e\xd1\x80\xd0\xbb\xd0\xb0\xd0\xbd\xd0\xb4\xd0\xbe'
p2570
g22
sS'Uerkheim'
p2571
g4
sS'Gravelines'
p2572
g36
sS'Mississippi Mills'
p2573
g7
sS'Bouguenais'
p2574
g7
sS'Gy\xc5\x91r\xc3\xbajbar\xc3\xa1t'
p2575
g20
sS'Wrze\xc5\x9bnia'
p2576
g7
sS'Mildura'
p2577
g20
sS'Herstal'
p2578
g7
sS'Kissimmee'
p2579
g11
sS'Raleigh'
p2580
g67
sS'Nancy'
p2581
g51
sS'Beemster'
p2582
g7
sS'T\xc3\xa5rnby'
p2583
g4
sS'Reston'
p2584
g2
sS'Doonside'
p2585
g22
sS'Gudo Visconti'
p2586
g7
sS'Nacka'
p2587
g32
sS'Brukunga'
p2588
g2
sS'Wellard'
p2589
g58
sS'Mt Ommaney'
p2590
g4
sS'L\xc3\xb6rrach'
p2591
g58
sS'Freienbach'
p2592
g11
sS'Dryanovo'
p2593
g58
sS'Isleworth'
p2594
g1030
sS'Isogo-Ku, Yokohama'
p2595
g7
sS'Uxbridge'
p2596
g110
sS'Wimborne'
p2597
g71
sS'Sainte-Julienne'
p2598
g36
sS'Terneuzen'
p2599
g36
sS'S\xc3\xb8nderborg'
p2600
g36
sS'Izmir'
p2601
g22
sS'Gy\xc5\x91r'
p2602
g13
sS'Erlanger'
p2603
g22
sS'Bremen'
p2604
g32
sS'Washougal'
p2605
g2
sS'Roskilde'
p2606
g58
sS'P\xc3\xa9rez Zeled\xc3\xb3n'
p2607
g7
sS'Tacloban City'
p2608
g58
sS'West Sacramento'
p2609
g36
sS'New Maryland'
p2610
g22
sS'Hostivice'
p2611
g32
sS'\xe5\x93\x88\xe5\xb0\x94\xe6\xbb\xa8\xe5\xb8\x82'
p2612
g2
sS'Fort Tondiarpet'
p2613
g36
sS'Alpen'
p2614
g36
sS'Rosario'
p2615
g13
sS'Zimella'
p2616
g61
sS'South Hobart'
p2617
g28
sS'Bertrange'
p2618
g2
sS'Tienen'
p2619
g7
sS'West Windsor'
p2620
g11
sS'Uddevalla'
p2621
g20
sS'Luzern'
p2622
g22
sS'Earlwood'
p2623
g4
sS'Sabadell'
p2624
g22
sS'\xd8\xa7\xd9\x84\xd8\xb1\xd9\x82\xd8\xa9'
p2625
g58
sS'Marina'
p2626
g28
sS'\xd0\xa7\xd0\xb5\xd0\xbb\xd1\x8f\xd0\xb1\xd0\xb8\xd0\xbd\xd1\x81\xd0\xba'
p2627
g18
sS'Kidlington'
p2628
g135
sS'Jeddah'
p2629
g20
sS'Chatham'
p2630
g7
sS'Sabah as Salim'
p2631
g67
sS'Milton Keynes'
p2632
g359
sS'\xd0\xa5\xd0\xbe\xd1\x80\xd0\xbe\xd1\x88\xd0\xb5\xd0\xb2\xd0\xbe-\xd0\x9c\xd0\xbd\xd0\xb5\xd0\xb2\xd0\xbd\xd0\xb8\xd0\xba\xd0\xb8'
p2633
g61
sS'Alta'
p2634
g20
sS'Prunedale'
p2635
g61
sS"Bois-d'Arcy"
p2636
g7
sS'Viladecavalls'
p2637
g4
sS'M\xc3\xa9rignac'
p2638
g80
sS'Pieve di Cadore'
p2639
g11
sS'Juvignac'
p2640
g13
sS'Adelberg'
p2641
g58
sS'Hutan Melintang'
p2642
g7
sS'Dunedin'
p2643
g7
sS'Hvide Sande'
p2644
g7
sS'Alexandria'
p2645
g32
sS'Cincinnati'
p2646
g58
sS'Guelph'
p2647
g36
sS'Pansio'
p2648
g22
sS'Hallbergmoos'
p2649
g13
sS'Obermumpf'
p2650
g36
sS'Bad Endorf'
p2651
g2
sS'Herning'
p2652
g86
sS'Evesham'
p2653
g126
sS'Wiesbaden'
p2654
g51
sS'M\xc3\xbceyyedzade'
p2655
g387
sS'Chiang Mai'
p2656
g2
sS'Bab Sharq'
p2657
g46
sS'Ospitaletto'
p2658
g2
sS'Weert'
p2659
g36
sS'Bognor Regis'
p2660
g149
sS'Belmont'
p2661
g36
sS'Arlesey'
p2662
g135
sS'Ryton'
p2663
g326
sS'Mount Cook'
p2664
g13
sS'Napa'
p2665
g20
sS'Esplugues de Llobregat'
p2666
g13
sS'Cleburne'
p2667
g36
sS'Ponte Buggianese'
p2668
g7
sS'Terre Rouge'
p2669
g2
sS'Cologne'
p2670
g51
sS'North Shields'
p2671
g26
sS'Gonz\xc3\xa1lez Cat\xc3\xa1n'
p2672
g20
sS'Sylvania'
p2673
g36
sS'Pittsburgh'
p2674
g11
sS'Moscow'
p2675
g4
sS'Yukar\xc4\xb1 Dudullu'
p2676
g2139
sS'Albuquerque'
p2677
g80
sS'Leek'
p2678
g7
sS'Dordrecht'
p2679
g7
sS'Greve'
p2680
g58
sS'Katowice'
p2681
g13
sS'Basingstoke and Deane'
p2682
g126
sS'Reggio Emilia'
p2683
g51
sS'Hayling Island'
p2684
g557
sS'Southport'
p2685
g92
sS'Karachi'
p2686
g2
sS'Fornaci'
p2687
g4
sS'Boz'
p2688
g28
sS'\xd7\xa8\xd7\x90\xd7\xa9 \xd7\x94\xd7\xa2\xd7\x99\xd7\x9f'
p2689
g13
sS'Kingston upon Thames'
p2690
S'London'
p2691
sS'Viterbo'
p2692
g36
sS'Looe'
p2693
g326
sS'Davie'
p2694
g2
sS'Feldkirch'
p2695
g67
sS'Harku'
p2696
g18
sS'Cascade'
p2697
g58
sS'Noale'
p2698
g71
sS'Snogh\xc3\xb8j'
p2699
g18
sS'Albany'
p2700
g22
sS'Badung'
p2701
g2
sS'Tromso'
p2702
g22
sS'Paradise'
p2703
g36
sS'Civesio'
p2704
g2
sS'Hinterzarten'
p2705
g20
sS'Kanfanar'
p2706
g13
sS'Oviedo'
p2707
g36
sS'New Delhi'
p2708
g86
sS'Talat Bang Khen'
p2709
g1547
sS'Veigue'
p2710
g22
sS'Epping'
p2711
g28
sS'Reinheim'
p2712
g7
sS'Campoalegre'
p2713
g11
sS'Pewsey'
p2714
g268
sS'North Hills'
p2715
g20
sS'Laakdal'
p2716
g32
sS'Bari'
p2717
g18
sS'St. Catharines'
p2718
g22
sS'Pierceville'
p2719
g7
sS'Hurghada'
p2720
g22
sS'Rancho Cucamonga'
p2721
g22
sS'Kingston upon Hull'
p2722
g359
sS'Gro\xc3\x9f Pankow (Prignitz)'
p2723
g61
sS'Wymondham'
p2724
g24
sS'Midland'
p2725
g36
sS'Riehen'
p2726
g58
sS'La Chaux-de-Fonds'
p2727
g13
sS'Wals-Siezenheim'
p2728
g7
sS'Kaisten'
p2729
g86
sS'Urayasu'
p2730
g13
sS'Ponce'
p2731
g13
sS'Mount Edgecombe'
p2732
g2
sS'Sch\xc3\xbcbelbach'
p2733
g20
sS'Arcola'
p2734
g7
sS'Beckum'
p2735
g7
sS"Villenave-d'Ornon"
p2736
g86
sS'\xc3\x89pinay-Champl\xc3\xa2treux'
p2737
g2
sS'Canning Vale'
p2738
g20
sS'Thomasville'
p2739
g22
sS'Trofa'
p2740
g22
sS"Ta' Xbiex"
p2741
g4
sS'Findlay'
p2742
g36
sS'Muttontown'
p2743
g7
sS'Esher'
p2744
g146
sS'Norman'
p2745
g51
sS'Unterf\xc3\xb6hring'
p2746
g7
sS'H\xc3\xb6llviken'
p2747
g51
sS'Morden'
p2748
g261
sS'Nitra'
p2749
g36
sS'\xce\x9a\xce\xbf\xcf\x81\xcf\x85\xce\xb4\xce\xb1\xce\xbb\xce\xbb\xce\xbf\xcf\x8d'
p2750
g71
sS'Nouaceur'
p2751
g4
sS'Bicester'
p2752
g24
sS'Queensway'
p2753
g61
sS'Pasay'
p2754
g7
sS'Port Chester'
p2755
g18
sS'G\xc3\xa4llivare'
p2756
g20
sS'Como'
p2757
g20
sS'Orimattila'
p2758
g20
sS'Rivignano'
p2759
g67
sS'La Giudecca'
p2760
g80
sS'Chester-Le-Street'
p2761
g326
sS'Galveston'
p2762
g2
sS'Luj\xc3\xa1n'
p2763
g2
sS'Immingham'
p2764
g135
sS'Casoria'
p2765
g71
sS'Champlin'
p2766
g7
sS'Matraman'
p2767
g22
sS'Gainesville'
p2768
g18
sS'Trophy Club'
p2769
g13
sS'Auchenflower'
p2770
g2
sS'Felixstowe'
p2771
g94
sS'Odense'
p2772
g4
sS'Albufeira'
p2773
g51
sS'Franklin'
p2774
g11
sS'\xe9\x9b\xb7\xe4\xb8\x81'
p2775
g51
sS'Arnuero'
p2776
g36
sS'Prairie Village'
p2777
g7
sS'Arden Hills'
p2778
g58
sS'Mark'
p2779
g13
sS'Leinfelden-Echterdingen'
p2780
g2
sS'\xd8\xa7\xd9\x84\xd9\x85\xd8\xaf\xd9\x8a\xd9\x86\xd8\xa9'
p2781
g22
sS'General Pueyrred\xc3\xb3n'
p2782
g7
sS'Nenzlingen'
p2783
g7
sS'Beijing'
p2784
g2
sS'Brookmont'
p2785
g28
sS'Guarulhos'
p2786
g32
sS'Preston'
p2787
g557
sS'Wilnsdorf'
p2788
g7
sS'Salta'
p2789
g7
sS'Bishan'
p2790
g28
sS'Murray'
p2791
g51
sS'Helena'
p2792
g20
sS'Amancey'
p2793
g7
sS'Set\xc3\xbabal'
p2794
g71
sS'Rocquencourt'
p2795
g13
sS'Midori-Ku, Yokohama'
p2796
g22
sS'Belp'
p2797
g7
sS'Wetherby'
p2798
g24
sS'Berja'
p2799
g36
sS'Feltham'
p2800
g110
sS'Walddorf'
p2801
g51
sS'\xe6\x9c\x9d\xe9\x9c\x9e\xe5\xb8\x82'
p2802
g7
sS'\xd7\xa0\xd7\xa6\xd7\xa8 \xd7\xa1\xd7\xa8\xd7\xa0\xd7\x99'
p2803
g18
sS'Goch'
p2804
g4
sS'H\xc3\xa4rjedalen'
p2805
g13
sS'Choa Chu Kang'
p2806
g2
sS'Schalchen'
p2807
g22
sS'Londres'
p2808
g110
sS'Dorval'
p2809
g18
sS'Rankweil'
p2810
g51
sS'Versailles'
p2811
g20
sS'Konnerud'
p2812
g67
sS"Lli\xc3\xa7\xc3\xa0 d'Amunt"
p2813
g51
sS'Bucure\xc5\x9fti'
p2814
g61
sS'Addlestone'
p2815
g336
sS'Kings Langley'
p2816
g336
sS'Clifton Park'
p2817
g7
sS'Budapest XIX. ker\xc3\xbclet'
p2818
g61
sS'Limavady'
p2819
g994
sS'Rodgau'
p2820
g7
sS'Cuiab\xc3\xa1'
p2821
g20
sS'Egmore Nungambakkam'
p2822
g22
sS'Setagaya'
p2823
g7
sS'Curtin'
p2824
g22
sS'Fiumicino'
p2825
g32
sS'Eugene'
p2826
g58
sS'Zottegem'
p2827
g11
sS'Shenton Park'
p2828
g20
sS'Wembley'
p2829
g110
sS'Gosport'
p2830
g326
sS'Ladispoli'
p2831
g7
sS'Wanaque'
p2832
g20
sS'Biggar'
p2833
g20
sS'Murcia'
p2834
g4
sS'Paradise Valley'
p2835
g22
sS'Zug'
p2836
g7
sS'Solna'
p2837
g51
sS'Sch\xc3\xb6ftland'
p2838
g36
sS'Recife'
p2839
g20
sS'Colombier-Saugnieu'
p2840
g7
sS'Drancy'
p2841
g4
sS'Limoges'
p2842
g20
sS'Bromley'
p2843
g2691
sS"Lugagnano Val d'Arda"
p2844
g2
sS'Bishops Stortford'
p2845
g2691
sS'Leipzig'
p2846
g4
sS'Mj\xc3\xb6lby'
p2847
g20
sS'Eastleigh'
p2848
g123
sS'Stamford'
p2849
g13
sS'Mj\xc3\xb8ndalen'
p2850
g7
sS'L\xc3\xbcbeck'
p2851
g58
sS'Cardiff'
p2852
g24
sS'Ashfield'
p2853
g126
sS'Saint-Quentin-en-Yvelines'
p2854
g71
sS'Secaucus'
p2855
g2
sS'Westlake Village'
p2856
g51
sS'Warsaw'
p2857
g58
sS'Old Bridge'
p2858
g20
sS'Telde'
p2859
g20
sS'Raseborg'
p2860
g58
sS'\xd0\xa2\xd0\xb0\xd0\xbb\xd0\xbb\xd0\xb8\xd0\xbd\xd0\xbd'
p2861
g2
sS'el Prat de Llobregat'
p2862
g80
sS'\xd0\x98\xd1\x80\xd0\xba\xd1\x83\xd1\x82\xd1\x81\xd0\xba'
p2863
g7
sS'Oelde'
p2864
g22
sS'Bologna'
p2865
g22
sS'Waltalingen'
p2866
g58
sS'Basel'
p2867
g4
sS'Assen'
p2868
g7
sS'South Ogden'
p2869
g71
sS'Quilmes'
p2870
g58
sS'Bergkirchen'
p2871
g86
sS'\xd7\x91\xd7\xaa \xd7\x99\xd7\x9d'
p2872
g11
sS'Sagunto'
p2873
g7
sS'Trowbridge'
p2874
g135
sS'Modena'
p2875
g11
sS'Carugate'
p2876
g7
sS'Erith'
p2877
g955
sS'Bayou Cane'
p2878
g58
sS'Platteville'
p2879
g7
sS'Meyreuil'
p2880
g7
sS'\xd0\x9f\xd0\xb5\xd1\x80\xd0\xbc\xd1\x8c'
p2881
g36
sS'Cedar Park'
p2882
g20
sS'Sefrou'
p2883
g58
sS'Panchkula'
p2884
g51
sS'P\xc3\xb3voa de Varzim'
p2885
g7
sS'Flesberg'
p2886
g51
sS'Dawlish'
p2887
g126
sS'Navalcarnero'
p2888
g2
sS'Holland'
p2889
g7
sS'Osasco'
p2890
g22
sS'Al Kuwayt'
p2891
g20
sS'M\xc3\xa9cringes'
p2892
g51
sS'Caserta'
p2893
g22
sS'Rijkevorsel'
p2894
g22
sS'Totnes'
p2895
g268
sS'\xd9\x84\xd9\x86\xd8\xaf\xd9\x86'
p2896
g110
sS'Accra'
p2897
g58
sS'\xd7\xa4\xd7\xaa\xd7\x97 \xd7\xaa\xd7\xa7\xd7\x95\xd7\x95\xd7\x94'
p2898
g51
sS'Chesterfield'
p2899
g94
sS'\xce\x9b\xce\xbf\xce\xbd\xce\xb4\xce\xaf\xce\xbd\xce\xbf'
p2900
g110
sS'Fellbach'
p2901
g2
sS'Medford'
p2902
g7
sS'Letchworth Garden City'
p2903
g149
sS'Charlotte'
p2904
g32
sS'Haninge'
p2905
g2
sS'Tur\xc3\xadn'
p2906
g18
sS'Brisbane'
p2907
g7
sS'Edmonton'
p2908
g28
sS'Angeles City'
p2909
g58
sS'\xe6\x9d\xbe\xe5\xb1\xb1\xe5\x8d\x80'
p2910
g20
sS'\xd7\x97\xd7\x95\xd7\x9c\xd7\x95\xd7\x9f'
p2911
g20
sS'Wijchen'
p2912
g86
sS'Bagneux'
p2913
g7
sS'Oakham'
p2914
g135
sS'Turku'
p2915
g13
sS'Rocheservi\xc3\xa8re'
p2916
g36
sS'Winchester'
p2917
g4
sS'Shetland'
p2918
g336
sS'Lower Allen'
p2919
g58
sS'Gunnison'
p2920
g86
sS'Hayle'
p2921
g326
sS'Alcester'
p2922
g83
sS'\xe3\x83\xad\xe3\x83\xb3\xe3\x83\x89\xe3\x83\xb3'
p2923
g955
sS'Huddersfield'
p2924
g146
sS'Bath'
p2925
g146
sS'\xd0\xa1\xd1\x85\xd0\xbe\xd0\xb4\xd0\xbd\xd1\x8f'
p2926
g51
sS'San Mateo'
p2927
g22
sS'Lier'
p2928
g20
sS'Rees'
p2929
g36
sS'Linz'
p2930
g36
sS'Oldham'
p2931
g83
sS'Arona'
p2932
g71
sS'San Diego'
p2933
g2
sS'Cheverly'
p2934
g22
sS'Volders'
p2935
g80
sS'Calatabiano'
p2936
g58
sS'Reed'
p2937
g2
sS'Herford'
p2938
g22
sS'Tel Aviv-Yafo'
p2939
g36
sS'Dromiskin'
p2940
g7
sS'Lind'
p2941
g4
sS'Heanor'
p2942
g126
sS'Le Havre'
p2943
g4
sS'Brownstown'
p2944
g11
sS'Lone Tree'
p2945
g58
sS'Calgary'
p2946
g20
sS'Santo Andr\xc3\xa9'
p2947
g2
sS'Klang'
p2948
g22
sS'City of Zagreb'
p2949
g51
sS'Uitikon'
p2950
g13
sS'A Coru\xc3\xb1a'
p2951
g36
sS'Kota Kinabalu'
p2952
g32
sS'Mont-Royal'
p2953
g58
sS'Kaunas'
p2954
g20
sS'Grandview'
p2955
g22
sS'Walbridge'
p2956
g7
sS'Ferri\xc3\xa8res'
p2957
g7
sS'Perugia'
p2958
g80
sS'Nebikon'
p2959
g22
sS'Gnesta'
p2960
g51
sS'Varberg'
p2961
g2
sS'Viveiro'
p2962
g36
sS"Val-d'Or"
p2963
g2
sS'Beverley'
p2964
g268
sS'Legnano'
p2965
g22
sS'Lochwinnoch'
p2966
g126
sS'Ningbo'
p2967
g58
sS'Avil\xc3\xa9s'
p2968
g4
sS'Lomas de Zamora'
p2969
g22
sS'\xe5\x8d\x97\xe4\xba\xac\xe5\xb8\x82'
p2970
g2
sS'Porsgrunn'
p2971
g2
sS'Evje og Hornnes'
p2972
g80
sS'Volda'
p2973
g22
sS'Mexicali'
p2974
g58
sS'Campolivar'
p2975
g58
sS'\xce\xa1\xce\xb5\xce\xb8\xcf\x8d\xce\xbc\xce\xbd\xce\xb7\xcf\x82'
p2976
g7
sS'Manila'
p2977
g51
sS'Hove'
p2978
g7
sS'Monte San Giovanni Campano'
p2979
g13
sS'Middleburg'
p2980
g11
sS'Waroona'
p2981
g2
sS'Clonsilla'
p2982
g58
sS'Nice'
p2983
g20
sS'Leamington Spa'
p2984
g135
sS'Shorewood'
p2985
g58
sS'Indianapolis'
p2986
g20
sS'Fribourg'
p2987
g13
sS'Chichester'
p2988
g126
sS'Oxbacken'
p2989
g7
sS'Lecce'
p2990
g22
sS'Northcote'
p2991
g32
sS'Sola'
p2992
g32
sS'Short Pump'
p2993
g36
sS'Borga (Porvoo)'
p2994
g2
sS'\xd0\xa2\xd1\x8e\xd0\xbc\xd0\xb5\xd0\xbd\xd1\x8c'
p2995
g13
sS'Campo de Criptana'
p2996
g28
sS'Saint-Maur-des-Foss\xc3\xa9s'
p2997
g28
sS'Waipio Acres'
p2998
g7
sS'Memphis'
p2999
g71
sS'Devlet'
p3000
g36
sS'La Haya'
p3001
g2
sS'Galt'
p3002
g58
sS'Glencoe'
p3003
g22
sS'Johnstone'
p3004
g126
sS'Lule\xc3\xa5'
p3005
g51
sS'Ramstein-Miesenbach'
p3006
g13
sS'Myllyoja'
p3007
g36
sS'Kendale Lakes'
p3008
g71
sS'Lapu-Lapu'
p3009
g71
sS'Aigle'
p3010
g36
sS'North Myrtle Beach'
p3011
g58
sS'Garges-l\xc3\xa8s-Gonesse'
p3012
g67
sS'Bornheim'
p3013
g28
sS'Sugar Mountain'
p3014
g18
sS'Bottmingen'
p3015
g22
sS'Miguel Hidalgo'
p3016
g7
sS'Hinckley'
p3017
g126
sS'Capurso'
p3018
g2
sS'Lowestoft'
p3019
g24
sS'Minato'
p3020
g20
sS'Maastricht'
p3021
g36
sS'Birmingham'
p3022
g24
sS'Deinze'
p3023
g7
sS'\xe8\x8b\x8f\xe5\xb7\x9e\xe5\xb8\x82'
p3024
g2
sS'Sankt Johann im Pongau'
p3025
g7
sS'Halifax'
p3026
g71
sS'Voorburg'
p3027
g58
sS'Oyster Bay'
p3028
g36
sS'Hattiesburg'
p3029
g2
sS'Yakuplu'
p3030
g7
sS'\xc3\x85dlands\xc3\xa5sen'
p3031
g1512
sS'Assens'
p3032
g32
sS'Pinner'
p3033
g182
sS'\xec\x84\x9c\xea\xb5\xac'
p3034
g36
sS'\xe6\x96\xb0\xe6\xbd\x9f\xe5\xb8\x82\xe4\xb8\xad\xe5\xa4\xae\xe5\x8c\xba'
p3035
g58
sS'Barbad\xc3\xa1s'
p3036
g7
sS'Ang Mo Kio'
p3037
g11
sS'\xd0\x9c\xd1\x8e\xd0\xbd\xd1\x85\xd0\xb5\xd0\xbd'
p3038
g7
sS'Saint-Germain-Village'
p3039
g11
sS'Liding\xc3\xb6'
p3040
g20
sS'Pozzoleone'
p3041
g7
sS'Yutz'
p3042
g58
sS'Sz\xc3\xb3l\xc3\xa1d'
p3043
g22
sS'Puchheim'
p3044
g7
sS'\xd0\xa7\xd0\xb5\xd1\x80\xd0\xbd\xd1\x96\xd0\xb3\xd1\x96\xd0\xb2'
p3045
g11
sS'Villa Park'
p3046
g126
sS'Santo Domingo'
p3047
g20
sS'Skhirate T\xc3\xa9mara'
p3048
g11
sS'Batu'
p3049
g61
sS'Kingston'
p3050
g7
sS'Severna Park'
p3051
g61
sS'Oatley'
p3052
g36
sS'Koblenz'
p3053
g7
sS'Bia\xc5\x82ystok'
p3054
g4
sS'Missouri City'
p3055
g13
sS'Koper'
p3056
g4
sS'Far Rockaway'
p3057
g18
sS'Amherst'
p3058
g71
sS'Bergamo'
p3059
g36
sS'Landau in der Pfalz'
p3060
g7
sS'Mandaluyong City'
p3061
g28
sS'Kaltenkirchen'
p3062
g7
sS'Ballainvilliers'
p3063
g4
sS'Zwolle'
p3064
g7
sS'Umm Slal'
p3065
g329
sS'Stirling'
p3066
g557
sS'Frankfurt am Main'
p3067
g51
sS'South Croydon'
p3068
g110
sS'Sarajevo'
p3069
g7
sS'Zejtun'
p3070
g22
sS'Vitoria-Gasteiz'
p3071
g2
sS"Brain-sur-l'Authion"
p3072
g7
sS'Wheeling'
p3073
g20
sS'Putrajaya'
p3074
g36
sS'\xe6\x9d\xb1\xe7\xa4\xbe'
p3075
g58
sS'Tallahassee'
p3076
g36
sS'Misterbianco'
p3077
g7
sS'Glen Waverley'
p3078
g11
sS'L\xc3\xa6s\xc3\xb8'
p3079
g80
sS'M\xc3\xbcnzenberg'
p3080
g7
sS"Collina d'Oro"
p3081
g7
sS'Hamois'
p3082
g22
sS'Blackpool'
p3083
g83
sS'\xd7\xa2\xd7\xa4\xd7\x95\xd7\x9c\xd7\x94'
p3084
g36
sS'Salisbury'
p3085
g24
sS'Ljungby'
p3086
g22
sS'Campana'
p3087
g2
sS'Awal Al Qahera Al Gadida'
p3088
g2256
sS'Zurigo'
p3089
g4
sS'Wilson'
p3090
g22
sS'Leutenbach'
p3091
g7
sS'Havant'
p3092
g336
sS'\xeb\x8f\x99\xec\x9e\x91\xea\xb5\xac'
p3093
g67
sS'Rubiera'
p3094
g7
sS'Dudley'
p3095
g359
sS'Parndorf'
p3096
g36
sS'Warrington'
p3097
g347
sS'Herzliya'
p3098
g7
sS'\xd0\x9b\xd0\xbe\xd0\xbd\xd0\xb4\xd0\xbe\xd0\xbd'
p3099
g2691
sS'Lake Grove'
p3100
g36
sS'Warwick'
p3101
g61
sS'Montagny-Sainte-F\xc3\xa9licit\xc3\xa9'
p3102
g20
sS'Cape Neddick'
p3103
g13
sS'Zevenaar'
p3104
g20
sS'Rhode-Saint-Gen\xc3\xa8se'
p3105
g13
sS'La Plata'
p3106
g58
sS'Clayton'
p3107
g4
sS'Denistone East'
p3108
g58
sS'Westborough'
p3109
g51
sS'Bingen am Rhein'
p3110
g80
sS'Phra Khanong Nuea'
p3111
g2454
sS'Catania'
p3112
g67
sS'Gloucester'
p3113
g135
sS'N\xc3\xbcrnberg'
p3114
g4
sS'Solingen'
p3115
g7
sS'Porto'
p3116
g71
sS'Dubai'
p3117
g18
sS'Erlangen'
p3118
g36
sS'Porth'
p3119
g24
sS'\xd7\x97\xd7\x99\xd7\xa4\xd7\x94'
p3120
g58
sS'Miami'
p3121
g71
sS'\xe5\xba\x83\xe5\xb3\xb6\xe5\xb8\x82\xe8\xa5\xbf\xe5\x8c\xba'
p3122
g2
sS'Bathgate'
p3123
g126
sS'Keysborough'
p3124
g7
sS'Frederikssund'
p3125
g13
sS'Cerritos'
p3126
g11
sS'Wittd\xc3\xbcn auf Amrum'
p3127
g36
sS'Mount Coot-Tha'
p3128
g22
sS'Sundsvall'
p3129
g7
sS'Caslano'
p3130
g11
sS'V\xc3\xa4ster\xc3\xa5s'
p3131
g51
sS'Bridport'
p3132
g135
sS'Freising'
p3133
g11
sS'Malle'
p3134
g36
sS'Gateshead'
p3135
g149
sS'Dronfield'
p3136
g92
sS'York'
p3137
g336
sS'Pessac'
p3138
g7
sS'Jerez de la Frontera'
p3139
g11
sS'Geneva city'
p3140
g7
sS'San Mauro Marchesato'
p3141
g7
sS'Karlstad'
p3142
g13
sS'Sondika'
p3143
g20
sS'Ottange'
p3144
g58
sS'Stafford'
p3145
g128
sS'\xe4\xbc\x8a\xe9\x82\xa3\xe5\xb8\x82'
p3146
g22
sS'Bergen op Zoom'
p3147
g36
sS'Kongens Lyngby'
p3148
g51
sS'Skanderborg'
p3149
g51
sS'Alc\xc3\xa1zar de San Juan'
p3150
g51
sS'\xe3\x83\x96\xe3\x83\x80\xe3\x83\x9a\xe3\x82\xb9\xe3\x83\x88'
p3151
g4
sS'Dandenong North'
p3152
g20
sS'Mbabane'
p3153
g20
sS'Liberty'
p3154
g58
sS'Le P\xc3\xa2quier (FR)'
p3155
g51
sS'Hilversum'
p3156
g36
sS'Bastia Umbra'
p3157
g67
sS'Deep Gap'
p3158
g51
sS'Sarnia'
p3159
g36
sS'Vitacura'
p3160
g20
sS'Hayward'
p3161
g36
sS'Rueil-Malmaison'
p3162
g7
sS'Lycksele'
p3163
g36
sS'Dewsbury'
p3164
g24
sS'Ch\xc3\xa2tenay-Malabry'
p3165
g7
sS'Santaf\xc3\xa9 De Bogot\xc3\xa1'
p3166
g7
sS'Hamilton'
p3167
g22
sS'Sesvete'
p3168
g7
sS'Wigan'
p3169
g146
sS'Saint Albans'
p3170
g67
sS'Schleithal'
p3171
g7
sS'\xe7\xbb\x8d\xe5\x85\xb4\xe5\xb8\x82'
p3172
g36
sS'Marion'
p3173
g22
sS'Rivanazzano Terme'
p3174
g36
sS'Taranto'
p3175
g7
sS'Varnell'
p3176
g7
sS'Haifa'
p3177
g22
sS'Gj\xc3\xb8vik'
p3178
g71
sS'Freiberg'
p3179
g28
sS'Troms\xc3\xb8'
p3180
g2
sS'\xe5\xba\x83\xe5\xb3\xb6\xe5\xb8\x82'
p3181
g36
sS'North Ferriby'
p3182
g347
sS'New Malden'
p3183
g955
sS'Iver'
p3184
g359
sS'Hangzhou'
p3185
g2
sS'Matosinhos'
p3186
g20
sS'L\xc3\xa9signy'
p3187
g22
sS'Claymont'
p3188
g7
sS'Strathfield'
p3189
g36
sS'Penicuik'
p3190
g123
sS'South Perth'
p3191
g20
sS'Guldborgsund'
p3192
g20
sS'Oshawa'
p3193
g22
sS'Madrid'
p3194
g4
sS'Islip'
p3195
g126
sS'Sankt Peter-Ording'
p3196
g58
sS'El Astillero'
p3197
g67
sS'Falk\xc3\xb6ping'
p3198
g7
sS'G\xc3\xbc\xc3\xadmar'
p3199
g51
sS'V\xc3\xa4stanfj\xc3\xa4rd'
p3200
g22
sS'Sigtuna'
p3201
g28
sS'Raukawa'
p3202
g2
sS'Hyde'
p3203
g268
sS'Nonnweiler'
p3204
g20
sS'Tadcaster'
p3205
g557
sS'Granadilla de Abona'
p3206
g20
sS'Kumla'
p3207
g20
sS'Ar Rifa'
p3208
g2
sS'Fontenay-sous-Bois'
p3209
g13
sS'Egham'
p3210
g24
sS'Mexico City'
p3211
g13
sS'Longperrier'
p3212
g7
sS'Mount Clemens'
p3213
g7
sS'Belfast'
p3214
g24
sS'Saint-Jean-de-V\xc3\xa9das'
p3215
g11
sS'G\xc3\xbcrsel'
p3216
g36
sS'Pontefract'
p3217
g126
sS'Orvault'
p3218
g7
sS'Brockenhurst'
p3219
g347
sS'Izabelin'
p3220
g7
sS'Linley Point'
p3221
g20
sS'Assago'
p3222
g7
sS'Barrow-Upon-Humber'
p3223
g126
sS'Newbury'
p3224
g146
sS'Country Estates'
p3225
g13
sS'Kurwongbah'
p3226
g51
sS'\xe4\xb8\x8a\xe6\xb5\xb7\xe5\xb8\x82\xe5\xb8\x82\xe8\xbe\x96\xe5\x8c\xba'
p3227
g1628
sS'Alcobendas'
p3228
g51
sS'Gmunden'
p3229
g51
sS'Wangsa Maju'
p3230
g20
sS'Miami Gardens'
p3231
g58
sS'Beauvoisin'
p3232
g22
sS"Givat Shemu'el"
p3233
g387
sS'Konnersreuth'
p3234
g36
sS'Nasr City'
p3235
g71
sS'Par\xc3\xads'
p3236
g4
sS'Moulden'
p3237
g22
sS"Braine-l'Alleud"
p3238
g36
sS"Vandell\xc3\xb2s i l'Hospitalet de l'Infant"
p3239
g80
sS'Mazz\xc3\xa8'
p3240
g7
sS'Palermo'
p3241
g2
sS'Lincoln'
p3242
g4
sS'Grisolia'
p3243
g22
sS'Ayranc\xc4\xb1'
p3244
g2
sS'Bredstedt'
p3245
g11
sS'Helsinki'
p3246
g32
sS'Bellentre'
p3247
g11
sS'Birtlingen'
p3248
g7
sS'Drammen'
p3249
g22
sS'Freiberg am Neckar'
p3250
g36
sS'Cannes'
p3251
g4
sS'Freiburg'
p3252
g7
sS'Bordeaux'
p3253
g67
sS'Radu\xc5\x88'
p3254
g36
sS'Bolton'
p3255
g26
sS'\xe4\xb8\x89\xe5\xb3\xbd\xe5\x8d\x80'
p3256
g20
sS'Pesaro'
p3257
g58
sS'B\xc3\xa6rum'
p3258
g7
sS'Wichita Falls'
p3259
g22
sS'Almirante Brown'
p3260
g22
sS'Ovar'
p3261
g20
sS'Sister Bay'
p3262
g7
sS'Treharris'
p3263
g359
sS'Suwa\xc5\x82ki'
p3264
g51
sS'West Haven'
p3265
g22
sS'\xd0\x92\xd0\xbd\xd1\x83\xd0\xba\xd0\xbe\xd0\xb2\xd0\xbe'
p3266
g2
sS'New York'
p3267
g4
sS'Berlino'
p3268
g11
sS'Casper'
p3269
g36
sS'Lima'
p3270
g20
sS'Bergen'
p3271
g4
sS'San Fernando'
p3272
g58
sS'Lomma'
p3273
g67
sS'Oldenburg'
p3274
g36
sS'Wald (BE)'
p3275
g22
sS'Povolaro'
p3276
g7
sS'Kl\xc3\xa6bu'
p3277
g71
sS'Kebayoran Baru'
p3278
g58
sS'El Ejido'
p3279
g32
sS'Zuidplas'
p3280
g7
sS'Hannover'
p3281
g11
sS'Smithtown'
p3282
g2
sS'Pamulang'
p3283
g7
sS'Lerum'
p3284
g22
sS'Veenendaal'
p3285
g7
sS'V\xc3\xa4xj\xc3\xb6'
p3286
g7
sS'Socx'
p3287
g67
sS'Johns Island'
p3288
g58
sS'Alton'
p3289
g67
sS'Stocksfield'
p3290
g126
sS'H\xc3\xbcrth'
p3291
g51
sS'Brusque'
p3292
g11
sS'Brasschaat'
p3293
g51
sS'Grand Terrace'
p3294
g22
sS'Willenhall'
p3295
g24
sS'Foz do Igua\xc3\xa7u'
p3296
g7
sS'Carquefou'
p3297
g7
sS'Newport Beach'
p3298
g61
sS'Eperlecques'
p3299
g32
sS'Lancy'
p3300
g71
sS'Decatur'
p3301
g11
sS'Las Palmas de Gran Canaria'
p3302
g71
sS'\xe4\xbd\x9b\xe5\xb1\xb1\xe5\xb8\x82'
p3303
g13
sS'Oldambt'
p3304
g71
sS'Anasco'
p3305
g7
sS'Kettering'
p3306
g135
sS'Cobham'
p3307
g51
sS'Bangor'
p3308
g80
sS'Cruz Quebrada-Dafundo'
p3309
g22
sS'Suzhou'
p3310
g20
sS'Avonhead'
p3311
g22
sS'Lake Forest'
p3312
g7
sS'Sunfish Lake'
p3313
g51
sS'\xc3\x85bytorp'
p3314
g18
sS'Hamm'
p3315
g22
sS'Limeil-Br\xc3\xa9vannes'
p3316
g7
sS'\xd7\xaa\xd7\x9c \xd7\x90\xd7\x91\xd7\x99\xd7\x91-\xd7\x99\xd7\xa4\xd7\x95'
p3317
g18
sS'Prague'
p3318
g22
sS'Claremore'
p3319
g20
sS'Zurrieq'
p3320
g4
sS'French River / Rivi\xc3\xa8re des Fran\xc3\xa7ais'
p3321
g71
sS'J\xc3\xb6nk\xc3\xb6ping'
p3322
g58
sS'Ystad'
p3323
g58
sS'Mechelen'
p3324
g80
sS'Knetzgau'
p3325
g7
sS'Santa Fara'
p3326
g58
sS'Shawnee'
p3327
g22
sS'Figline Valdarno'
p3328
g36
sS'Fauverney'
p3329
g11
sS'Haarlemmermeer'
p3330
g13
sS'Regina'
p3331
g36
sS'Ume\xc3\xa5'
p3332
g67
sS'Pintu Gang'
p3333
g7
sS'S\xc3\xa8te'
p3334
g71
sS'Al Khor'
p3335
g2
sS'Brierley Hill'
p3336
g336
sS'Leioa'
p3337
g20
sS'Gatineau'
p3338
g36
sS'West Drayton'
p3339
g182
sS'Marignane'
p3340
g2
sS'M\xc3\xa5l\xc3\xb8y'
p3341
g86
sS'Sun Lakes'
p3342
g7
sS'Ilford'
p3343
g2691
sS'Hod\xc4\x9bjice'
p3344
g20
sS'Dunbar'
p3345
g126
sS'Asni\xc3\xa8res-sur-Seine'
p3346
g2
sS'Honiton'
p3347
g268
sS'Tolga'
p3348
g36
sS'Campinas'
p3349
g80
sS'\xd8\xac\xd8\xaf\xd9\x91\xd8\xa9\xe2\x80\x8e'
p3350
g36
sS'Spirano'
p3351
g11
sS'Northwich'
p3352
g16
sS'Dickson'
p3353
g11
sS'Mol'
p3354
g67
sS'Treviso'
p3355
g13
sS'\xe5\x8d\x97\xe5\xae\x89\xe6\x99\xae\xe9\xa1\xbf'
p3356
g2
sS'Keswick'
p3357
g123
sS'Bucharest'
p3358
g4
sS'\xd7\xa1\xd7\x91\xd7\x99\xd7\x95\xd7\x9f'
p3359
g7
sS'Markgr\xc3\xb6ningen'
p3360
g67
sS'Taman Perling'
p3361
g58
sS'Aalborg'
p3362
g20
sS'Viry-Ch\xc3\xa2tillon'
p3363
g20
sS'Ovchartsi'
p3364
g36
sS'\xd0\x9e\xd0\xb4\xd0\xb5\xd1\x81\xd1\x81\xd0\xb0'
p3365
g20
sS'Vreden'
p3366
g13
sS'Lake Saint Louis'
p3367
g58
sS'Mirano'
p3368
g51
sS'Oupeye'
p3369
g18
sS'Golf'
p3370
g58
sS'Kristinehamn'
p3371
g7
sS'Cookstown'
p3372
g126
sS'Grossh\xc3\xb6chstetten'
p3373
g13
sS'Weyburn'
p3374
g13
sS'Bengaluru South'
p3375
g28
sS'Steinmauern'
p3376
g58
sS'The Hague'
p3377
g67
sS'Selden'
p3378
g67
sS'Fredericksburg'
p3379
g36
sS'S\xc3\xb6lvesborg'
p3380
g7
sS'San Antonio'
p3381
g4
sS'Darlington'
p3382
g2
sS'\xe4\xb8\x89\xe9\xb7\xb9\xe5\xb8\x82'
p3383
g7
sS'Perth'
p3384
g7
sS'\xc3\x98rskog'
p3385
g2
sS'Renens (VD)'
p3386
g7
sS'Taguig City'
p3387
g58
sS'Gulfport'
p3388
g11
sS'Garwood'
p3389
g7
sS'Colico'
p3390
g20
sS'Ilkeston'
p3391
g146
sS'Joensuu'
p3392
g51
sS'Sandton'
p3393
g20
sS'Wassenaar'
p3394
g58
sS'Jaszbereny'
p3395
g4
sS'Amman'
p3396
g28
sS'Porreres'
p3397
g7
sS'Mirrabooka'
p3398
g51
sS'Chantilly'
p3399
g2
sS'Bonningues-l\xc3\xa8s-Calais'
p3400
g67
sS'Posadas'
p3401
g86
sS'Basingstoke'
p3402
g92
sS'Beirut'
p3403
g4
sS'Punta Arenas'
p3404
g7
sS'Sangatte'
p3405
g36
sS'Li\xc3\xa9rganes'
p3406
g11
sS'Kingsbridge'
p3407
g126
sS'South Brighton'
p3408
g2
sS'Latina'
p3409
g22
sS'Neuvill-en-Ferrain'
p3410
g46
sS'Los Angeles'
p3411
g4
sS'Constan\xc5\xa3a'
p3412
g22
sS'Loon-Plage'
p3413
g22
sS'San Mart\xc3\xadn del Rey Aurelio'
p3414
g20
sS'Hebden Bridge'
p3415
g347
sS'Congleton'
p3416
g92
sS'Gelsenkirchen'
p3417
g22
sS'Norr\xc3\xb8na'
p3418
g86
sS'Dinan'
p3419
g4
sS'Bukit Batok'
p3420
g7
sS'Samrong Nuea'
p3421
g58
sS'North Potomac'
p3422
g58
sS'\xc3\x91u\xc3\xb1oa'
p3423
g71
sS'Krak\xc3\xb3w'
p3424
g20
sS'Campbelltown'
p3425
g2
sS'Komorniki'
p3426
g7
sS'Pompano Beach'
p3427
g20
sS'Thousand Oaks'
p3428
g22
sS'Portsmouth'
p3429
g135
sS'Round Rock'
p3430
g2
sS'Dupnitsa'
p3431
g7
sS'\xd8\xa7\xd9\x84\xd8\xae\xd8\xa8\xd8\xb1'
p3432
g36
sS'Wigston'
p3433
g92
sS'Forlimpopoli'
p3434
g51
sS"Bol'shiye Vyazemj"
p3435
g1547
sS'Opzullik'
p3436
g32
sS'Rolla'
p3437
g2
sS'Rosengarten'
p3438
g36
sS'Middlesbrough'
p3439
g92
sS'Sion'
p3440
g7
sS'Tacoma'
p3441
g22
sS'Morelia'
p3442
g36
sS'Ellisville'
p3443
g22
sS'\xec\x88\x98\xec\x9b\x90\xec\x8b\x9c'
p3444
g22
sS'Almelo'
p3445
g11
sS'Walvisbaai'
p3446
g36
sS'Elche'
p3447
g4
sS'Fraxern'
p3448
g80
sS'Santa Clara'
p3449
g7
sS'Kriens'
p3450
g67
sS'Monte Argentario'
p3451
g71
sS'Pulborough'
p3452
g268
sS'Hanoi'
p3453
g80
sS'Ronchin'
p3454
g2
sS'Friedrich-List-Hof'
p3455
g51
sS'Gunnedah'
p3456
g2
sS'Milltimber'
p3457
g326
sS'Cagayan De Oro City'
p3458
g7
sS'Widnes'
p3459
g126
sS'Turin'
p3460
g22
sS'Colorina'
p3461
g71
sS'Negombo'
p3462
g22
sS'Kirchberg an der Jagst'
p3463
g51
sS'Johnson City'
p3464
g7
sS'Inverness'
p3465
g336
sS'El Verano'
p3466
g11
sS'Birkirkara'
p3467
g7
sS'Chouilly'
p3468
g7
sS'Brooklyn'
p3469
g32
sS'Mount Prospect'
p3470
g11
sS'Mansfield'
p3471
g11
sS'Llandrindod Wells'
p3472
g128
sS'\xe6\x9e\x9a\xe6\x96\xb9\xe5\xb8\x82'
p3473
g11
sS'Kota Cilegon'
p3474
g20
sS'\xd9\x83\xd8\xa7\xd9\x85\xd8\xa8\xd8\xb1\xd8\xaf\xd8\xac'
p3475
g11
sS'Tumkur'
p3476
g2
sS'St. Augustine'
p3477
g58
sS'Toronto'
p3478
g4
sS'West Columbia'
p3479
g2
sS'Flora'
p3480
g61
sS'Offenburg'
p3481
g7
sS'Saint Paul'
p3482
g36
sS'Wetter (Ruhr)'
p3483
g11
sS'Wellington'
p3484
g51
sS'Leeuw-Saint-Pierre'
p3485
g7
sS'Greven'
p3486
g7
sS'Schierling'
p3487
g51
sS'Altm\xc3\xbcnster'
p3488
g2
sS'New Farm'
p3489
g22
sS'Tlajomulco de Z\xc3\xba\xc3\xb1iga'
p3490
g71
sS'Grenaa'
p3491
g36
sS'\xc3\x85bo'
p3492
g7
sS'Richardson'
p3493
g58
sS'Thalwil'
p3494
g28
sS'Madurai South'
p3495
g36
sS'Ar Riqqah'
p3496
g36
sS'Avon'
p3497
g11
sS'Olaberria'
p3498
g13
sS'Numurkah'
p3499
g7
sS'Secci\xc3\xb3n 02'
p3500
g4
sS'Port Melbourne'
p3501
g58
sS'Arveyres'
p3502
g28
sS'\xe0\xb8\xa5\xe0\xb8\xb2\xe0\xb8\x94\xe0\xb8\x9e\xe0\xb8\xa3\xe0\xb9\x89\xe0\xb8\xb2\xe0\xb8\xa7'
p3503
g32
sS'\xd0\xa7\xd0\xb5\xd1\x80\xd0\xba\xd0\xb8\xd0\xb7\xd0\xbe\xd0\xb2\xd0\xbe'
p3504
g36
sS'Scafati'
p3505
g7
sS'Bethlehem'
p3506
g51
sS'Citrus Park'
p3507
g2
sS'Mirabella Eclano'
p3508
g36
sS'J\xc4\x99drzej\xc3\xb3w'
p3509
g58
sS'Baarn'
p3510
g7
sS'Guillaumes'
p3511
g22
sS'Shanghai'
p3512
g4
sS'Brda'
p3513
g7
sS'Fontanelle'
p3514
g7
sS'Bystro\xc4\x8dice'
p3515
g7
sS'Wulpen'
p3516
g13
sS'San Pedro de La Paz'
p3517
g58
sS'Tallinn'
p3518
g32
sS'S\xc3\xa3o Paulo'
p3519
g4
sS'Pwllheli'
p3520
g123
sS'Gothenburg'
p3521
g20
sS'Loano'
p3522
g13
sS'Belmont South'
p3523
g58
sS'Ennepetal'
p3524
g13
sS'Vittorio Veneto'
p3525
g36
sS'Kongsberg'
p3526
g58
sS'Padbury'
p3527
g135
sS'Buenos Aires'
p3528
g67
sS'S\xc3\xa9malens'
p3529
g2
sS'Saint-Gratien'
p3530
g11
sS'\xd9\x83\xd8\xa7\xd8\xb1\xd8\xaf\xd9\x8a\xd9\x81'
p3531
g135
sS'Br\xc3\xb8ndby'
p3532
g61
sS'Dorado'
p3533
g2
sS'Bedok'
p3534
g20
sS'Oxford'
p3535
g26
sS'Kauno rajonas'
p3536
g36
sS'San Felipede De Puerto Plata'
p3537
g629
sS'Wendeburg'
p3538
g7
sS'Sherborne'
p3539
g126
sS'\xce\x91\xce\xb8\xce\xb7\xce\xbd\xce\xb1\xce\xaf\xcf\x89\xce\xbd'
p3540
g61
sS'Wallaroo'
p3541
g7
sS'Passage West'
p3542
g86
sS'Los Palacios y Villafranca'
p3543
g71
sS'Harrogate'
p3544
g16
sS'Pita Kotte'
p3545
g7
sS'Grange-over-Sands'
p3546
g326
sS'Trollh\xc3\xa4ttan'
p3547
g58
sS'Saint Austell'
p3548
g16
sS'Milnerton'
p3549
g58
sS'Carmel'
p3550
g11
sS'Henstedt-Ulzburg'
p3551
g7
sS'Inndyr'
p3552
g4
sS'Houston'
p3553
g4
sS'Puurs'
p3554
g67
sS'West Malling'
p3555
g92
sS'Wallingford'
p3556
g16
sS'Spring'
p3557
g22
sS'Alfreton'
p3558
g126
sS'Richards Bay'
p3559
g22
sS'Naucalpan de Ju\xc3\xa1rez'
p3560
g36
sS'Pinkenba'
p3561
g71
sS'Mascouche'
p3562
g7
sS'Edwardsville'
p3563
g11
sS'\xe5\x8c\x97\xe4\xba\xac\xe5\xb8\x82'
p3564
g7
sS'Gueliz'
p3565
g20
sS'Crewe'
p3566
g123
sS'H\xc3\xbcnfeld'
p3567
g2
sS'Cuneo'
p3568
g22
sS'South Valley'
p3569
g58
sS'Galway-Cavendish and Harvey'
p3570
g22
sS'Zebbug-Malta'
p3571
g86
sS'Ish\xc3\xb8j'
p3572
g4
sS'San Francisco'
p3573
g51
sS'Gaerwen'
p3574
g326
sS'Saint John'
p3575
g2
sS'Bellevue'
p3576
g67
sS'Unterseen'
p3577
g18
sS'Seaham'
p3578
g347
sS'Offenbach am Main'
p3579
g20
sS'Shakopee'
p3580
g71
sS'Saint-Herblain'
p3581
g7
sS'Teresina'
p3582
g36
sS'\xce\x9c\xce\xbf\xcf\x85\xcf\x81\xce\xbd\xce\xb9\xce\xad\xcf\x82'
p3583
g20
sS'\xd8\xa7\xd9\x84\xd9\x83\xd9\x88\xd9\x8a\xd8\xaa'
p3584
g7
sS'Helmond'
p3585
g13
sS'Erpe-Mere'
p3586
g71
sS'East Molesey'
p3587
g92
sS'Castellarano'
p3588
g36
sS'\xe4\xb8\xad\xe5\xb1\xb1\xe5\x8d\x80'
p3589
g7
sS'Danderyd'
p3590
g22
sS'Plouguiel'
p3591
g36
sS'\xe6\x88\x90\xe9\x83\xbd\xe5\xb8\x82'
p3592
g36
sS'Winston-Salem'
p3593
g20
sS'Eid'
p3594
g22
sS'Lichtenfels'
p3595
g51
sS'Zulte'
p3596
g36
sS'\xc3\x85lborg'
p3597
g7
sS'Camberley'
p3598
g92
sS'El Varadero'
p3599
g28
sS'Bar\xc4\xb1\xc5\x9f'
p3600
g22
sS'\xc4\xb0smetpa\xc5\x9fa'
p3601
g36
sS'Durham'
p3602
g92
sS'Villeneuve-Loubet'
p3603
g7
sS'Windhoek'
p3604
g58
sS'Shrewsbury'
p3605
g92
sS'Wermelskirchen'
p3606
g7
sS'Liskeard'
p3607
g26
sS'Auvernier'
p3608
g71
sS'Union Hill-Novelty Hill'
p3609
g4
sS'Vladivostok'
p3610
g7
sS'Redruth'
p3611
g126
sS'Laichingen'
p3612
g11
sS'Botevgrad'
p3613
g11
sS'\xd9\x83\xd9\x88\xd9\x81\xd9\x86\xd8\xaa\xd8\xb1\xd9\x8a'
p3614
g1547
sS'Guildford'
p3615
g24
sS'Cempaka Putih'
p3616
g58
sS'Sathonay-Camp'
p3617
g32
sS'Dartford'
p3618
g26
sS'T\xc3\xa4by'
p3619
g36
sS'Azur'
p3620
g80
sS'Ciudad de Panam\xc3\xa1'
p3621
g11
sS'Banbury'
p3622
g24
sS'Meridian'
p3623
g22
sS'Sacile'
p3624
g67
sS'Oujda'
p3625
g71
sS'Singapore'
p3626
g67
sS'Dudelange'
p3627
g7
sS'\xe9\x9d\x99\xe5\xb2\xa1\xe5\xb8\x82\xe9\xa7\xbf\xe6\xb2\xb3\xe5\x8c\xba'
p3628
g7
sS'Market Harborough'
p3629
g126
sS'Torricella-Taverne'
p3630
g36
sS'Freemans Bay'
p3631
g7
sS'North Little Rock'
p3632
g11
sS'Aalst'
p3633
g51
sS'Dugazon'
p3634
g7
sS'Dunn Loring'
p3635
g13
sS'Bryant'
p3636
g20
sS'Manial Shiha'
p3637
g58
sS'Angers'
p3638
g58
sS'Emirgan'
p3639
g58
sS'Canoas'
p3640
g4
sS'Rodemack'
p3641
g13
sS'\xe3\x82\xb5\xe3\x83\xb3\xe3\x83\x88\xef\xbc\x9d\xe3\x83\x95\xe3\x82\xa9\xe3\x83\xaf\xef\xbc\x9d\xe3\x83\xac\xef\xbc\x9d\xe3\x83\xaa\xe3\x83\xa8\xe3\x83\xb3'
p3642
g1547
sS'Santana de Parna\xc3\xadba'
p3643
g13
sS'Atak\xc3\xb6y 2-5-6.'
p3644
g4
sS'La Coru\xc3\xb1a'
p3645
g51
sS'Cheshire'
p3646
g22
sS'Chester'
p3647
g94
sS'Beaumaris'
p3648
g16
sS'Stanley'
p3649
g20
sS'Panama City'
p3650
g32
sS'Bingley'
p3651
g83
sS'Gennevilliers'
p3652
g28
sS'J\xc3\xa4rf\xc3\xa4lla'
p3653
g51
sS'Kendall'
p3654
g80
sS'Selby'
p3655
g71
sS'Foggia'
p3656
g36
sS'\xd0\xa0\xd0\xbe\xd1\x81\xd1\x82\xd0\xbe\xd0\xb2-\xd0\xbd\xd0\xb0-\xd0\x94\xd0\xbe\xd0\xbd\xd1\x83'
p3657
g58
sS'Erenk\xc3\xb6y'
p3658
g58
sS'Swanage'
p3659
g347
sS'Radinghem-en-Weppes'
p3660
g51
sS'Mernda'
p3661
g11
sS'Geispolsheim'
p3662
g58
sS'Menton'
p3663
g61
sS'Sant Josep de sa Talaia'
p3664
g86
sS'Zarautz'
p3665
g36
sS'Shelley'
p3666
g83
sS'Kingman'
p3667
g499
sS'Hazelmere'
p3668
g80
sS'Stansted'
p3669
g24
sS'Grimsby'
p3670
g126
sS'Manaus'
p3671
g22
sS'Raamsdonksveer'
p3672
g22
sS'Halmstad'
p3673
g4
sS'Cape Coral'
p3674
g4
sS'Greenville'
p3675
g7
sS'H\xc3\xa4rn\xc3\xb6sand'
p3676
g36
sS'Teignmouth'
p3677
g326
sS'Hood River'
p3678
g51
sS'Shinagawa'
p3679
g13
sS'Tulare'
p3680
g2
sS'Benfleet'
p3681
g24
sS'Fairview Park'
p3682
g67
sS'Airdrie'
p3683
g36
sS'Lillehammer'
p3684
g71
sS'Karori'
p3685
g7
sS'Saint-Valery-en-Caux'
p3686
g20
sS'Molina de Segura'
p3687
g7
sS'Marrakech'
p3688
g7
sS'Mers Sultan'
p3689
g67
sS'Pistoia'
p3690
g22
sS'Staphorst'
p3691
g22
sS'Rancho Mirage'
p3692
g20
sS'Tarentum'
p3693
g7
sS'\xd7\x91\xd7\x99\xd7\xa8 \xd7\x90\xd7\x9c-\xd7\x9e\xd7\x9b\xd7\xa1\xd7\x95\xd7\xa8'
p3694
g7
sS'Folligny'
p3695
g20
sS'H\xc3\xb8ve Strand'
p3696
g58
sS'Bradford'
p3697
g128
sS'Frome'
p3698
g126
sS'Leighton Buzzard'
p3699
g326
sS'Longueau'
p3700
g7
sS'Sibu'
p3701
g61
sS'Gyumri'
p3702
g7
sS'Somosaguas'
p3703
g51
sS'Poole'
p3704
g24
sS'La Norville'
p3705
g2
sS'\xd0\x9c\xd0\xbe\xd1\x81\xd0\xba\xd0\xb2\xd0\xb0'
p3706
g18
sS'Winter Park'
p3707
g22
sS'P\xc3\xa9lissanne'
p3708
g11
sS'Tolochenaz Gare'
p3709
g67
sS'Chelsea'
p3710
g559
sS'Stalybridge'
p3711
g126
sS'Donostia-San Sebasti\xc3\xa1n'
p3712
g36
sS'Camelford'
p3713
g94
sS'Sonoma'
p3714
g22
sS'Doetinchem'
p3715
g4
sS'Punta Gorda'
p3716
g36
sS'Walsall'
p3717
g92
sS'Morainvilliers'
p3718
g7
sS'Nowra'
p3719
g2
sS'Riyadh'
p3720
g18
sS'Skejby'
p3721
g7
sS'Hebron'
p3722
g13
sS'Manteno'
p3723
g20
sS'Goodwick'
p3724
g126
sS'Magnago'
p3725
g18
sS'Arden'
p3726
g36
sS'Saidapet'
p3727
g7
sS'Longueuil'
p3728
g61
sS'Soto del Real'
p3729
g58
sS'Calama'
p3730
g2
sS'Horten'
p3731
g58
sS'Riga'
p3732
g4
sS'Otley'
p3733
g347
sS'Dranesville'
p3734
g58
sS'Crowborough'
p3735
g347
sS'Staffanstorp'
p3736
g7
sS'Nivelles'
p3737
g4
sS'Bozeman'
p3738
g7
sS'\xd0\xa5\xd0\xb0\xd1\x80\xd1\x8c\xd0\xba\xd0\xbe\xd0\xb2'
p3739
g86
sS'Las Condes'
p3740
g499
sS'Tarporley'
p3741
g135
sS'Kohler'
p3742
g22
sS'Geneva'
p3743
g20
sS'Whitehall'
p3744
S'London'
p3745
sS'Nova Lima'
p3746
g4
sS'Melksham'
p3747
g126
sS'Goole'
p3748
g557
sS'Aduna'
p3749
g13
sS'Wallace'
p3750
g20
sS'Bielefeld'
p3751
g7
sS'East Perth'
p3752
g2
sS'Torbole Casaglia'
p3753
g32
sS'Landen'
p3754
S'London'
p3755
sS'East Honolulu'
p3756
g11
sS'Laredo'
p3757
g11
sS'Jacksonville'
p3758
g7
sS'Meiktila'
p3759
g67
sS'Henlow'
p3760
g83
sS'Bad Br\xc3\xbcckenau'
p3761
g11
sS'Ga\xc3\xabl'
p3762
g22
sS'Upminster'
p3763
S'London'
p3764
sS'Nieb\xc3\xbcll'
p3765
g4
sS'Puilboreau'
p3766
g11
sS'Chili'
p3767
g58
sS'Alcal\xc3\xa1 de Guada\xc3\xadra'
p3768
g58
sS'San Pellegrino Terme'
p3769
g80
sS'Valkenswaard'
p3770
g7
sS'Hyvink\xc3\xa4\xc3\xa4'
p3771
g7
sS'Hungerford'
p3772
g92
sS'Otsu'
p3773
g11
sS'Cadaqu\xc3\xa9s'
p3774
g11
sS'Baltimore'
p3775
g13
sS'Dover'
p3776
g36
sS'Abingdon'
p3777
g20
sS'El Prat de Llobregat'
p3778
g20
sS'Killwangen'
p3779
g36
sS'Vestnes'
p3780
g86
sS'Steenokkerzeel'
p3781
g20
sS'Anaheim'
p3782
g71
sS'Stockton-on-Tees'
p3783
g146
sS'Pico'
p3784
g11
sS'Blue Springs'
p3785
g2
sS'\xe6\xa8\xaa\xe6\xb5\x9c\xe5\xb8\x82\xe6\xb3\x89\xe5\x8c\xba'
p3786
g7
s.